(dp0
S'valid_accuracy'
p1
(lp2
cnumpy.core.multiarray
scalar
p3
(cnumpy
dtype
p4
(S'f8'
p5
I0
I1
tp6
Rp7
(I3
S'<'
p8
NNNI-1
I-1
I0
tp9
bS'T9B?@\x15H@'
p10
tp11
Rp12
ag3
(g7
S'"J\xe7\xb2\x19\xa2M@'
p13
tp14
Rp15
ag3
(g7
S'.\x9b!J\xe7\xb2P@'
p16
tp17
Rp18
ag3
(g7
S'\xe2\tR\x8f%\xdeP@'
p19
tp20
Rp21
ag3
(g7
S'\x0b\xa7\x1d\xf6\xad\xf0P@'
p22
tp23
Rp24
ag3
(g7
S'=\x96x\x82\xd4\xa3Q@'
p25
tp26
Rp27
ag3
(g7
S's\x84~\x80*GQ@'
p28
tp29
Rp30
ag3
(g7
S'\xf9\xac\x1bL\x91\x0fQ@'
p31
tp32
Rp33
ag3
(g7
S'\x10P\xe5\x08\xfd@Q@'
p34
tp35
Rp36
asS'train_loss'
p37
(lp38
g3
(g4
(S'f4'
p39
I0
I1
tp40
Rp41
(I3
S'<'
p42
NNNI-1
I-1
I0
tp43
bS'\xe2U\xf8A'
p44
tp45
Rp46
ag3
(g41
S'\xe5\xa7\x04B'
p47
tp48
Rp49
ag3
(g41
S'q\xd3\xdbA'
p50
tp51
Rp52
ag3
(g41
S'\xfe\xe5\x10C'
p53
tp54
Rp55
ag3
(g41
S'\xd1\xd0\xa0A'
p56
tp57
Rp58
ag3
(g41
S'\x7ff\xaeA'
p59
tp60
Rp61
ag3
(g41
S'\xc2\x15\x89A'
p62
tp63
Rp64
ag3
(g41
S'\x92I\x8aA'
p65
tp66
Rp67
ag3
(g41
S'\xcb\xf4\x84A'
p68
tp69
Rp70
ag3
(g41
S'\xd4iSA'
p71
tp72
Rp73
ag3
(g41
S'\xcag`A'
p74
tp75
Rp76
ag3
(g41
S'3\xda\xf5A'
p77
tp78
Rp79
ag3
(g41
S'^\x0c*A'
p80
tp81
Rp82
ag3
(g41
S'Hp\x04A'
p83
tp84
Rp85
ag3
(g41
S'\xa6\x0c\x02A'
p86
tp87
Rp88
ag3
(g41
S'\xcc\xab\xe2@'
p89
tp90
Rp91
ag3
(g41
S'Q\xc9\x88A'
p92
tp93
Rp94
ag3
(g41
S'9\x8f\xb2@'
p95
tp96
Rp97
ag3
(g41
S'A\x1d\x91@'
p98
tp99
Rp100
ag3
(g41
S'|\x96\x8e@'
p101
tp102
Rp103
ag3
(g41
S'\xd5+\x8d@'
p104
tp105
Rp106
ag3
(g41
S'\xd0fw@'
p107
tp108
Rp109
ag3
(g41
S'\xe5\xe1t@'
p110
tp111
Rp112
ag3
(g41
S'\xe4M\x08A'
p113
tp114
Rp115
ag3
(g41
S'1\x907@'
p116
tp117
Rp118
ag3
(g41
S'\xbb\x9aC@'
p119
tp120
Rp121
ag3
(g41
S'\xb9\nE@'
p122
tp123
Rp124
ag3
(g41
S'\xa0\x8a3@'
p125
tp126
Rp127
ag3
(g41
S'\x11\x17!@'
p128
tp129
Rp130
ag3
(g41
S'~\t/@'
p131
tp132
Rp133
ag3
(g41
S'\x11\x8c\xf9?'
p134
tp135
Rp136
ag3
(g41
S'44\x00@'
p137
tp138
Rp139
ag3
(g41
S'Kz\x01@'
p140
tp141
Rp142
ag3
(g41
S'\xd4k\xf2?'
p143
tp144
Rp145
ag3
(g41
S'5\x01\xef?'
p146
tp147
Rp148
ag3
(g41
S'\x04\x03\xe2?'
p149
tp150
Rp151
ag3
(g41
S'\xdb\x81\xe5?'
p152
tp153
Rp154
ag3
(g41
S'\xb0J\xd6?'
p155
tp156
Rp157
ag3
(g41
S'z\xe2\xeb?'
p158
tp159
Rp160
ag3
(g41
S'\x19\xb7\xda?'
p161
tp162
Rp163
ag3
(g41
S'\xea\x19\xc5?'
p164
tp165
Rp166
ag3
(g41
S'\xa0\xa4\xbb?'
p167
tp168
Rp169
ag3
(g41
S'\xf0\x96\xbf?'
p170
tp171
Rp172
ag3
(g41
S'\xc4g\xa9?'
p173
tp174
Rp175
ag3
(g41
S'}\xbe\xb3?'
p176
tp177
Rp178
ag3
(g41
S'x$\x9f?'
p179
tp180
Rp181
ag3
(g41
S'\xa6\x81\x97?'
p182
tp183
Rp184
ag3
(g41
S'\xf4Q\xa3?'
p185
tp186
Rp187
ag3
(g41
S'\xc9>\xb2?'
p188
tp189
Rp190
ag3
(g41
S'\x04\xa3\xa3?'
p191
tp192
Rp193
ag3
(g41
S'\x00"\x9b?'
p194
tp195
Rp196
ag3
(g41
S'\x9e1\xb7?'
p197
tp198
Rp199
ag3
(g41
S'n\xc0\xa7?'
p200
tp201
Rp202
ag3
(g41
S'u\xb4\x98?'
p203
tp204
Rp205
ag3
(g41
S'\xbf\xbd\x97?'
p206
tp207
Rp208
ag3
(g41
S'\xb3r\x92?'
p209
tp210
Rp211
ag3
(g41
S'\xf0\xa5\x9e?'
p212
tp213
Rp214
ag3
(g41
S'j7\xb9?'
p215
tp216
Rp217
ag3
(g41
S'z\x80\x95?'
p218
tp219
Rp220
ag3
(g41
S'\x17\xef\x9b?'
p221
tp222
Rp223
ag3
(g41
S'\xddb\x8f?'
p224
tp225
Rp226
ag3
(g41
S'\xc2V\x96?'
p227
tp228
Rp229
ag3
(g41
S'U\xd8\xa0?'
p230
tp231
Rp232
ag3
(g41
S'?Z\x9c?'
p233
tp234
Rp235
ag3
(g41
S'\x94v\x8b?'
p236
tp237
Rp238
ag3
(g41
S"'\x1d\x8a?"
p239
tp240
Rp241
ag3
(g41
S'b\xab\x93?'
p242
tp243
Rp244
ag3
(g41
S'\x89w\x86?'
p245
tp246
Rp247
ag3
(g41
S'\x94\xe9\x89?'
p248
tp249
Rp250
ag3
(g41
S'_Y\x9e?'
p251
tp252
Rp253
ag3
(g41
S'\x9b\x7f\x85?'
p254
tp255
Rp256
ag3
(g41
S'\x0e4\x8d?'
p257
tp258
Rp259
ag3
(g41
S'\xa2\xe3\x88?'
p260
tp261
Rp262
ag3
(g41
S'a\x9bv?'
p263
tp264
Rp265
ag3
(g41
S'g\x05\x92?'
p266
tp267
Rp268
ag3
(g41
S'\x17\xa4\x84?'
p269
tp270
Rp271
ag3
(g41
S'\x7fSk?'
p272
tp273
Rp274
ag3
(g41
S'\xea\xe3\xa0?'
p275
tp276
Rp277
ag3
(g41
S'Io\x86?'
p278
tp279
Rp280
ag3
(g41
S'D6\x85?'
p281
tp282
Rp283
ag3
(g41
S'\xc2\xd4\x9b?'
p284
tp285
Rp286
ag3
(g41
S'\xb2\xccz?'
p287
tp288
Rp289
ag3
(g41
S'\xa4\x12\x8e?'
p290
tp291
Rp292
ag3
(g41
S'\xfag\x8a?'
p293
tp294
Rp295
ag3
(g41
S'$\x98\x98?'
p296
tp297
Rp298
ag3
(g41
S'\xe9\x93\x8f?'
p299
tp300
Rp301
ag3
(g41
S'tG|?'
p302
tp303
Rp304
ag3
(g41
S'\xf0[\x95?'
p305
tp306
Rp307
ag3
(g41
S'\xe7~~?'
p308
tp309
Rp310
ag3
(g41
S'2\x9f}?'
p311
tp312
Rp313
ag3
(g41
S'\xf5\x96V?'
p314
tp315
Rp316
ag3
(g41
S'*\x0e\x80?'
p317
tp318
Rp319
ag3
(g41
S'\xed\xecc?'
p320
tp321
Rp322
ag3
(g41
S'.pc?'
p323
tp324
Rp325
ag3
(g41
S'k\xbbk?'
p326
tp327
Rp328
ag3
(g41
S'LBs?'
p329
tp330
Rp331
ag3
(g41
S'\x02\xe1\x80?'
p332
tp333
Rp334
ag3
(g41
S'"yq?'
p335
tp336
Rp337
ag3
(g41
S'o\x1bw?'
p338
tp339
Rp340
ag3
(g41
S'l\x1e\x80?'
p341
tp342
Rp343
ag3
(g41
S'\xe8\x8bY?'
p344
tp345
Rp346
ag3
(g41
S'\x9d5\x7f?'
p347
tp348
Rp349
ag3
(g41
S'd\xa6v?'
p350
tp351
Rp352
ag3
(g41
S'\x07\x19m?'
p353
tp354
Rp355
ag3
(g41
S'\x04\xea{?'
p356
tp357
Rp358
ag3
(g41
S'm\xc2Y?'
p359
tp360
Rp361
ag3
(g41
S']0i?'
p362
tp363
Rp364
ag3
(g41
S'\x87\x01\x8d?'
p365
tp366
Rp367
ag3
(g41
S'\x92t\x8c?'
p368
tp369
Rp370
ag3
(g41
S'\xf3\xf6{?'
p371
tp372
Rp373
ag3
(g41
S'K\x8ac?'
p374
tp375
Rp376
ag3
(g41
S'\xb7tZ?'
p377
tp378
Rp379
ag3
(g41
S'k\xcd^?'
p380
tp381
Rp382
ag3
(g41
S'~Cd?'
p383
tp384
Rp385
ag3
(g41
S'\xd8`R?'
p386
tp387
Rp388
ag3
(g41
S'\xb7Rx?'
p389
tp390
Rp391
ag3
(g41
S'\xba\xf8g?'
p392
tp393
Rp394
ag3
(g41
S'q\xe7d?'
p395
tp396
Rp397
ag3
(g41
S'>uc?'
p398
tp399
Rp400
ag3
(g41
S'fJ\x81?'
p401
tp402
Rp403
ag3
(g41
S'\x8c\xf3\x85?'
p404
tp405
Rp406
ag3
(g41
S'\x1b6\x82?'
p407
tp408
Rp409
ag3
(g41
S'\xd0Tm?'
p410
tp411
Rp412
ag3
(g41
S'\x9c/v?'
p413
tp414
Rp415
ag3
(g41
S'J\xc1t?'
p416
tp417
Rp418
ag3
(g41
S'\xcb\x85\x80?'
p419
tp420
Rp421
ag3
(g41
S'\xa4\x87f?'
p422
tp423
Rp424
ag3
(g41
S'\xbeW_?'
p425
tp426
Rp427
ag3
(g41
S'\x98n\x8c?'
p428
tp429
Rp430
ag3
(g41
S'\x08\xafs?'
p431
tp432
Rp433
ag3
(g41
S'\x94\xf6l?'
p434
tp435
Rp436
ag3
(g41
S'+1_?'
p437
tp438
Rp439
ag3
(g41
S'\xcakc?'
p440
tp441
Rp442
ag3
(g41
S'Y\t\x8b?'
p443
tp444
Rp445
ag3
(g41
S'\x9a\xefy?'
p446
tp447
Rp448
ag3
(g41
S'B\x0b;?'
p449
tp450
Rp451
ag3
(g41
S'\x1a\xe4@?'
p452
tp453
Rp454
ag3
(g41
S'v\x11O?'
p455
tp456
Rp457
ag3
(g41
S'\x0ewh?'
p458
tp459
Rp460
ag3
(g41
S'\xe8\x8cM?'
p461
tp462
Rp463
ag3
(g41
S'v \x85?'
p464
tp465
Rp466
ag3
(g41
S'_\xe2Q?'
p467
tp468
Rp469
ag3
(g41
S'0\xb6F?'
p470
tp471
Rp472
ag3
(g41
S'\xe4s\x83?'
p473
tp474
Rp475
ag3
(g41
S'\x9a\xaeA?'
p476
tp477
Rp478
ag3
(g41
S'N\x9bV?'
p479
tp480
Rp481
ag3
(g41
S'jUL?'
p482
tp483
Rp484
ag3
(g41
S'9J2?'
p485
tp486
Rp487
ag3
(g41
S'\x85\x06`?'
p488
tp489
Rp490
ag3
(g41
S'&\xe4x?'
p491
tp492
Rp493
ag3
(g41
S'\x89b\x83?'
p494
tp495
Rp496
ag3
(g41
S'\xdaqG?'
p497
tp498
Rp499
ag3
(g41
S'q\xcfn?'
p500
tp501
Rp502
ag3
(g41
S'\xcd3\x80?'
p503
tp504
Rp505
ag3
(g41
S'\x7f/h?'
p506
tp507
Rp508
ag3
(g41
S'\x90\xc2h?'
p509
tp510
Rp511
ag3
(g41
S'\x13\xa8V?'
p512
tp513
Rp514
ag3
(g41
S'\xd2B\x80?'
p515
tp516
Rp517
ag3
(g41
S'4\x14z?'
p518
tp519
Rp520
ag3
(g41
S'\x06\x0f]?'
p521
tp522
Rp523
ag3
(g41
S'\xd9\x8bg?'
p524
tp525
Rp526
ag3
(g41
S'\x08\x81\x86?'
p527
tp528
Rp529
ag3
(g41
S'8hP?'
p530
tp531
Rp532
ag3
(g41
S'5\xbbc?'
p533
tp534
Rp535
ag3
(g41
S'<\x1d^?'
p536
tp537
Rp538
ag3
(g41
S'$\xa0g?'
p539
tp540
Rp541
ag3
(g41
S'V\xc1y?'
p542
tp543
Rp544
ag3
(g41
S'\xb49f?'
p545
tp546
Rp547
ag3
(g41
S'H\x08N?'
p548
tp549
Rp550
ag3
(g41
S'\xb5\x01h?'
p551
tp552
Rp553
ag3
(g41
S'\x913Z?'
p554
tp555
Rp556
ag3
(g41
S'\xed\ru?'
p557
tp558
Rp559
ag3
(g41
S'\xf3@^?'
p560
tp561
Rp562
ag3
(g41
S'HZ`?'
p563
tp564
Rp565
ag3
(g41
S'\x15\nT?'
p566
tp567
Rp568
ag3
(g41
S'\x9a\x9bT?'
p569
tp570
Rp571
ag3
(g41
S'\x08\xf3x?'
p572
tp573
Rp574
ag3
(g41
S'!a:?'
p575
tp576
Rp577
ag3
(g41
S'\xfc\xde3?'
p578
tp579
Rp580
ag3
(g41
S'\x1a*B?'
p581
tp582
Rp583
ag3
(g41
S'\x0c+??'
p584
tp585
Rp586
ag3
(g41
S'H\xfc&?'
p587
tp588
Rp589
ag3
(g41
S'Il\x1a?'
p590
tp591
Rp592
ag3
(g41
S'\x1a\xeaJ?'
p593
tp594
Rp595
ag3
(g41
S'\xea"P?'
p596
tp597
Rp598
ag3
(g41
S'4\xae??'
p599
tp600
Rp601
ag3
(g41
S'q\x987?'
p602
tp603
Rp604
ag3
(g41
S'O\x0cC?'
p605
tp606
Rp607
ag3
(g41
S'ku-?'
p608
tp609
Rp610
ag3
(g41
S'\xbf\xbd+?'
p611
tp612
Rp613
ag3
(g41
S'`r<?'
p614
tp615
Rp616
ag3
(g41
S'\x18\x8bT?'
p617
tp618
Rp619
ag3
(g41
S'\x9a\xac??'
p620
tp621
Rp622
ag3
(g41
S'\xfe H?'
p623
tp624
Rp625
ag3
(g41
S'\xb4Q%?'
p626
tp627
Rp628
ag3
(g41
S'\xe0\x1c\x17?'
p629
tp630
Rp631
ag3
(g41
S'\xf7\x1fJ?'
p632
tp633
Rp634
ag3
(g41
S':\x8d\\?'
p635
tp636
Rp637
ag3
(g41
S'zJ*?'
p638
tp639
Rp640
ag3
(g41
S"\x18'O?"
p641
tp642
Rp643
ag3
(g41
S'\x91\x1fB?'
p644
tp645
Rp646
ag3
(g41
S'\xa6e$?'
p647
tp648
Rp649
ag3
(g41
S'\xa5\xf5o?'
p650
tp651
Rp652
ag3
(g41
S"\x17\xb6'?"
p653
tp654
Rp655
ag3
(g41
S'C\xa3:?'
p656
tp657
Rp658
ag3
(g41
S'\x7f\x1f/?'
p659
tp660
Rp661
ag3
(g41
S'\x98\x979?'
p662
tp663
Rp664
ag3
(g41
S'}\x0fI?'
p665
tp666
Rp667
ag3
(g41
S'U\xd89?'
p668
tp669
Rp670
ag3
(g41
S'\x07\xe74?'
p671
tp672
Rp673
ag3
(g41
S'\xeb_]?'
p674
tp675
Rp676
ag3
(g41
S'\n37?'
p677
tp678
Rp679
ag3
(g41
S'Yb7?'
p680
tp681
Rp682
ag3
(g41
S'\x9aik?'
p683
tp684
Rp685
ag3
(g41
S'\xcaN\x1f?'
p686
tp687
Rp688
ag3
(g41
S'\x81\xe9U?'
p689
tp690
Rp691
ag3
(g41
S'*\xf3e?'
p692
tp693
Rp694
ag3
(g41
S'|\x00m?'
p695
tp696
Rp697
ag3
(g41
S'\xf2\x03%?'
p698
tp699
Rp700
ag3
(g41
S'\xba\x98E?'
p701
tp702
Rp703
ag3
(g41
S'(\x02L?'
p704
tp705
Rp706
ag3
(g41
S'\xa8>2?'
p707
tp708
Rp709
ag3
(g41
S'M\xb2b?'
p710
tp711
Rp712
ag3
(g41
S',4\x13?'
p713
tp714
Rp715
ag3
(g41
S'\xb0\xb03?'
p716
tp717
Rp718
ag3
(g41
S'\xd9\xb0=?'
p719
tp720
Rp721
ag3
(g41
S'r\xdaZ?'
p722
tp723
Rp724
ag3
(g41
S'\xcf\x90s?'
p725
tp726
Rp727
ag3
(g41
S'\x18\x07C?'
p728
tp729
Rp730
ag3
(g41
S'4\x08!?'
p731
tp732
Rp733
ag3
(g41
S'D\x07\x1d?'
p734
tp735
Rp736
ag3
(g41
S'T\xdf5?'
p737
tp738
Rp739
ag3
(g41
S'\xc7\x981?'
p740
tp741
Rp742
ag3
(g41
S'\x9b\xde2?'
p743
tp744
Rp745
ag3
(g41
S'\xece_?'
p746
tp747
Rp748
ag3
(g41
S';\xef\x10?'
p749
tp750
Rp751
ag3
(g41
S'o\xb3%?'
p752
tp753
Rp754
ag3
(g41
S'\x82OR?'
p755
tp756
Rp757
ag3
(g41
S'A\xd8*?'
p758
tp759
Rp760
ag3
(g41
S'\xb0\x84E?'
p761
tp762
Rp763
ag3
(g41
S'\xc5\x042?'
p764
tp765
Rp766
ag3
(g41
S'\x02\xd2\x1e?'
p767
tp768
Rp769
ag3
(g41
S'\xa3\xbeO?'
p770
tp771
Rp772
ag3
(g41
S'\x85\xb2D?'
p773
tp774
Rp775
ag3
(g41
S'\x13|#?'
p776
tp777
Rp778
ag3
(g41
S'\x8f\x9cI?'
p779
tp780
Rp781
ag3
(g41
S'u\xa0B?'
p782
tp783
Rp784
ag3
(g41
S'rv\x1d?'
p785
tp786
Rp787
ag3
(g41
S'*I[?'
p788
tp789
Rp790
ag3
(g41
S'\x08\xc02?'
p791
tp792
Rp793
ag3
(g41
S'\xc992?'
p794
tp795
Rp796
ag3
(g41
S's|8?'
p797
tp798
Rp799
ag3
(g41
S'Q\x8b9?'
p800
tp801
Rp802
ag3
(g41
S'\xd3\xd58?'
p803
tp804
Rp805
ag3
(g41
S'3nH?'
p806
tp807
Rp808
ag3
(g41
S'\xe4\x80C?'
p809
tp810
Rp811
ag3
(g41
S'GIH?'
p812
tp813
Rp814
ag3
(g41
S'\x9d\xe3M?'
p815
tp816
Rp817
ag3
(g41
S'X\xb04?'
p818
tp819
Rp820
ag3
(g41
S'-_1?'
p821
tp822
Rp823
ag3
(g41
S'\x1b\xe0=?'
p824
tp825
Rp826
ag3
(g41
S'\x97\xb3F?'
p827
tp828
Rp829
ag3
(g41
S'vR,?'
p830
tp831
Rp832
ag3
(g41
S'\x80\xe4\x06?'
p833
tp834
Rp835
ag3
(g41
S'\x19n=?'
p836
tp837
Rp838
ag3
(g41
S'\xc2\x1b(?'
p839
tp840
Rp841
ag3
(g41
S'U*%?'
p842
tp843
Rp844
ag3
(g41
S'E\x05-?'
p845
tp846
Rp847
ag3
(g41
S'\xd6\x10\x01?'
p848
tp849
Rp850
ag3
(g41
S'R\xc8\r?'
p851
tp852
Rp853
ag3
(g41
S'\xae\x89\x0b?'
p854
tp855
Rp856
ag3
(g41
S'\xe8tA?'
p857
tp858
Rp859
ag3
(g41
S'+*\x1d?'
p860
tp861
Rp862
ag3
(g41
S'\xd6\x97\x1d?'
p863
tp864
Rp865
ag3
(g41
S'/5\x12?'
p866
tp867
Rp868
ag3
(g41
S'\xbe"\x12?'
p869
tp870
Rp871
ag3
(g41
S"\xf3\x08'?"
p872
tp873
Rp874
ag3
(g41
S'\xff\x17\x18?'
p875
tp876
Rp877
ag3
(g41
S'=\xaa"?'
p878
tp879
Rp880
ag3
(g41
S'\xc9\x15\x02?'
p881
tp882
Rp883
ag3
(g41
S'\xa6\x7f\x19?'
p884
tp885
Rp886
ag3
(g41
S'\xc7s\x1b?'
p887
tp888
Rp889
ag3
(g41
S'q!N?'
p890
tp891
Rp892
ag3
(g41
S'>\x16 ?'
p893
tp894
Rp895
ag3
(g41
S'D\x08\xf2>'
p896
tp897
Rp898
ag3
(g41
S'\xe2\xfa\t?'
p899
tp900
Rp901
ag3
(g41
S'\xb5t\x15?'
p902
tp903
Rp904
ag3
(g41
S'7U\x19?'
p905
tp906
Rp907
ag3
(g41
S'a\x10)?'
p908
tp909
Rp910
ag3
(g41
S'\x86ZQ?'
p911
tp912
Rp913
ag3
(g41
S'b\xfd\x19?'
p914
tp915
Rp916
ag3
(g41
S'\xe4\xb9\x14?'
p917
tp918
Rp919
ag3
(g41
S'4\xc0%?'
p920
tp921
Rp922
ag3
(g41
S'\x07o/?'
p923
tp924
Rp925
ag3
(g41
S'\xda\xc1\x13?'
p926
tp927
Rp928
ag3
(g41
S'\xedOC?'
p929
tp930
Rp931
ag3
(g41
S'\xf8\xc6\x12?'
p932
tp933
Rp934
ag3
(g41
S'\x0f\xe5\x18?'
p935
tp936
Rp937
ag3
(g41
S'\xf6\xc0\x1a?'
p938
tp939
Rp940
ag3
(g41
S"\xab'\xf1>"
p941
tp942
Rp943
ag3
(g41
S'\x12M\xfa>'
p944
tp945
Rp946
ag3
(g41
S'9\xba\x1d?'
p947
tp948
Rp949
ag3
(g41
S'\xe3\x1a+?'
p950
tp951
Rp952
ag3
(g41
S"\x0e\xb2'?"
p953
tp954
Rp955
ag3
(g41
S'\xa0\xa1\x1f?'
p956
tp957
Rp958
ag3
(g41
S'\x92\x9e%?'
p959
tp960
Rp961
ag3
(g41
S'\x07\xc5 ?'
p962
tp963
Rp964
ag3
(g41
S'|\xc3\x1e?'
p965
tp966
Rp967
ag3
(g41
S'zh.?'
p968
tp969
Rp970
ag3
(g41
S'\xe8F0?'
p971
tp972
Rp973
ag3
(g41
S'\xd1S1?'
p974
tp975
Rp976
ag3
(g41
S'\xb9\xa5\x0e?'
p977
tp978
Rp979
ag3
(g41
S'\xbf\x005?'
p980
tp981
Rp982
ag3
(g41
S'\xcb\xdb\x14?'
p983
tp984
Rp985
ag3
(g41
S'\xf0\xb9;?'
p986
tp987
Rp988
ag3
(g41
S'\xbd\xfd\x1f?'
p989
tp990
Rp991
ag3
(g41
S'\x1cZ\xf0>'
p992
tp993
Rp994
ag3
(g41
S'\xf4u5?'
p995
tp996
Rp997
ag3
(g41
S'i\x16:?'
p998
tp999
Rp1000
ag3
(g41
S'[T\x19?'
p1001
tp1002
Rp1003
ag3
(g41
S'\xbb\xee\x18?'
p1004
tp1005
Rp1006
ag3
(g41
S'\xe7e\x0c?'
p1007
tp1008
Rp1009
ag3
(g41
S'g\xdb!?'
p1010
tp1011
Rp1012
ag3
(g41
S'\xf8\xcf5?'
p1013
tp1014
Rp1015
ag3
(g41
S'8\xb53?'
p1016
tp1017
Rp1018
ag3
(g41
S'zb\x0f?'
p1019
tp1020
Rp1021
ag3
(g41
S'\xc8\x8f8?'
p1022
tp1023
Rp1024
ag3
(g41
S'\xb2\x12\x19?'
p1025
tp1026
Rp1027
ag3
(g41
S'\x92\xde\x1d?'
p1028
tp1029
Rp1030
ag3
(g41
S'0\x85\x01?'
p1031
tp1032
Rp1033
ag3
(g41
S' \xb6\x19?'
p1034
tp1035
Rp1036
ag3
(g41
S'\xf9\xf1\x0f?'
p1037
tp1038
Rp1039
ag3
(g41
S'\xf0s\x1d?'
p1040
tp1041
Rp1042
ag3
(g41
S'\xe9\x13 ?'
p1043
tp1044
Rp1045
ag3
(g41
S'\xccRI?'
p1046
tp1047
Rp1048
ag3
(g41
S'\xf9\xdd\x13?'
p1049
tp1050
Rp1051
ag3
(g41
S'\xdeU\x13?'
p1052
tp1053
Rp1054
ag3
(g41
S'\xa8\x87\x03?'
p1055
tp1056
Rp1057
ag3
(g41
S'\xb1\x80(?'
p1058
tp1059
Rp1060
ag3
(g41
S'\xfeV\x16?'
p1061
tp1062
Rp1063
ag3
(g41
S'\ta\x17?'
p1064
tp1065
Rp1066
ag3
(g41
S'Y\xdc\xfd>'
p1067
tp1068
Rp1069
ag3
(g41
S'\x1b\x900?'
p1070
tp1071
Rp1072
ag3
(g41
S'\x14\x195?'
p1073
tp1074
Rp1075
ag3
(g41
S'\x0e\xfe&?'
p1076
tp1077
Rp1078
ag3
(g41
S'S\x95-?'
p1079
tp1080
Rp1081
ag3
(g41
S'\xda\xa1$?'
p1082
tp1083
Rp1084
ag3
(g41
S'\x00$\x0b?'
p1085
tp1086
Rp1087
ag3
(g41
S'\xb6!5?'
p1088
tp1089
Rp1090
ag3
(g41
S'bS-?'
p1091
tp1092
Rp1093
ag3
(g41
S'\xe8\x0f/?'
p1094
tp1095
Rp1096
ag3
(g41
S'\x1c\xcd"?'
p1097
tp1098
Rp1099
ag3
(g41
S';\xab\x19?'
p1100
tp1101
Rp1102
ag3
(g41
S' c\x1b?'
p1103
tp1104
Rp1105
ag3
(g41
S'\x9b\xc1\x16?'
p1106
tp1107
Rp1108
ag3
(g41
S'\xf8\x91.?'
p1109
tp1110
Rp1111
ag3
(g41
S'\xc6\x9d\xf0>'
p1112
tp1113
Rp1114
ag3
(g41
S'\x91\xaa%?'
p1115
tp1116
Rp1117
ag3
(g41
S'\xfe\xd7\x15?'
p1118
tp1119
Rp1120
ag3
(g41
S'\xb0d\x01?'
p1121
tp1122
Rp1123
ag3
(g41
S'iz\xe4>'
p1124
tp1125
Rp1126
ag3
(g41
S'RB\x13?'
p1127
tp1128
Rp1129
ag3
(g41
S'\t9\x0c?'
p1130
tp1131
Rp1132
ag3
(g41
S'\xe5\xf21?'
p1133
tp1134
Rp1135
ag3
(g41
S'<y\xe4>'
p1136
tp1137
Rp1138
ag3
(g41
S'\xfdr\x11?'
p1139
tp1140
Rp1141
ag3
(g41
S"\xa1'6?"
p1142
tp1143
Rp1144
ag3
(g41
S'\\\x12"?'
p1145
tp1146
Rp1147
ag3
(g41
S'\xca\xd0\x0f?'
p1148
tp1149
Rp1150
ag3
(g41
S'w\xb9\x07?'
p1151
tp1152
Rp1153
ag3
(g41
S'E\xa3\xe2>'
p1154
tp1155
Rp1156
ag3
(g41
S'\x04\xd6\xe1>'
p1157
tp1158
Rp1159
ag3
(g41
S'&N\x13?'
p1160
tp1161
Rp1162
ag3
(g41
S'(\xdf\x08?'
p1163
tp1164
Rp1165
ag3
(g41
S'\xc6d)?'
p1166
tp1167
Rp1168
ag3
(g41
S'}\x02\x03?'
p1169
tp1170
Rp1171
ag3
(g41
S'\x1cU\x00?'
p1172
tp1173
Rp1174
ag3
(g41
S'T\x7f#?'
p1175
tp1176
Rp1177
ag3
(g41
S'\x83\xac\xee>'
p1178
tp1179
Rp1180
ag3
(g41
S':\x8f\x01?'
p1181
tp1182
Rp1183
ag3
(g41
S'H\xb0\xf5>'
p1184
tp1185
Rp1186
ag3
(g41
S'\xbc\x8f\xe0>'
p1187
tp1188
Rp1189
ag3
(g41
S'\xc9!\x0f?'
p1190
tp1191
Rp1192
ag3
(g41
S'\xb6\xac!?'
p1193
tp1194
Rp1195
ag3
(g41
S':\\\xeb>'
p1196
tp1197
Rp1198
ag3
(g41
S'p\xd5\x01?'
p1199
tp1200
Rp1201
ag3
(g41
S'-\xba\x14?'
p1202
tp1203
Rp1204
ag3
(g41
S'bz\x1c?'
p1205
tp1206
Rp1207
ag3
(g41
S'\xc9\x9c\x00?'
p1208
tp1209
Rp1210
ag3
(g41
S'\x91\xcc\x14?'
p1211
tp1212
Rp1213
ag3
(g41
S"\xb4'\xd4>"
p1214
tp1215
Rp1216
ag3
(g41
S'\xe8\xce+?'
p1217
tp1218
Rp1219
ag3
(g41
S'\x86;\r?'
p1220
tp1221
Rp1222
ag3
(g41
S'\x83\x0e\x0e?'
p1223
tp1224
Rp1225
ag3
(g41
S'\x8c\x01"?'
p1226
tp1227
Rp1228
ag3
(g41
S'aT\xf3>'
p1229
tp1230
Rp1231
ag3
(g41
S'\xfd\xf4$?'
p1232
tp1233
Rp1234
ag3
(g41
S'k\xdb\x13?'
p1235
tp1236
Rp1237
ag3
(g41
S'[\xa2\xdf>'
p1238
tp1239
Rp1240
ag3
(g41
S'o\xeb\xeb>'
p1241
tp1242
Rp1243
ag3
(g41
S'\x90&%?'
p1244
tp1245
Rp1246
ag3
(g41
S'ti ?'
p1247
tp1248
Rp1249
ag3
(g41
S'RM\x08?'
p1250
tp1251
Rp1252
ag3
(g41
S'\xe5]\r?'
p1253
tp1254
Rp1255
ag3
(g41
S'dj\x13?'
p1256
tp1257
Rp1258
ag3
(g41
S'\x1c)\x05?'
p1259
tp1260
Rp1261
ag3
(g41
S'\xad8\x16?'
p1262
tp1263
Rp1264
ag3
(g41
S'\xe4A\x1e?'
p1265
tp1266
Rp1267
ag3
(g41
S'\x7f8A?'
p1268
tp1269
Rp1270
ag3
(g41
S'\xe4I\xdb>'
p1271
tp1272
Rp1273
ag3
(g41
S'\x9dD\x04?'
p1274
tp1275
Rp1276
ag3
(g41
S'\x1c|\x14?'
p1277
tp1278
Rp1279
ag3
(g41
S'Ny\x16?'
p1280
tp1281
Rp1282
ag3
(g41
S'\xe0\x12\xed>'
p1283
tp1284
Rp1285
ag3
(g41
S'U\xfe\x0c?'
p1286
tp1287
Rp1288
ag3
(g41
S'2@\x01?'
p1289
tp1290
Rp1291
ag3
(g41
S'\xb7\xf1\x1f?'
p1292
tp1293
Rp1294
ag3
(g41
S'i\xde\x06?'
p1295
tp1296
Rp1297
ag3
(g41
S'^\xed\x1d?'
p1298
tp1299
Rp1300
ag3
(g41
S'|\xdf\t?'
p1301
tp1302
Rp1303
ag3
(g41
S'\x18\n\t?'
p1304
tp1305
Rp1306
ag3
(g41
S'w\xd0\xd8>'
p1307
tp1308
Rp1309
ag3
(g41
S'D\xdc\x11?'
p1310
tp1311
Rp1312
ag3
(g41
S'A\n\xde>'
p1313
tp1314
Rp1315
ag3
(g41
S'Z\x11 ?'
p1316
tp1317
Rp1318
ag3
(g41
S'B\xd9\x0c?'
p1319
tp1320
Rp1321
ag3
(g41
S'\xbeM\x12?'
p1322
tp1323
Rp1324
ag3
(g41
S'\xa5\x01\x1a?'
p1325
tp1326
Rp1327
ag3
(g41
S'\xb8\xfd\x0b?'
p1328
tp1329
Rp1330
ag3
(g41
S'?\xfc\xfd>'
p1331
tp1332
Rp1333
ag3
(g41
S'\xf3\x8b\xde>'
p1334
tp1335
Rp1336
ag3
(g41
S'\xb9Z\x11?'
p1337
tp1338
Rp1339
ag3
(g41
S'\xb8\x80\xd0>'
p1340
tp1341
Rp1342
ag3
(g41
S'\xc6.\x04?'
p1343
tp1344
Rp1345
ag3
(g41
S'Da\x01?'
p1346
tp1347
Rp1348
ag3
(g41
S'H\xf9\n?'
p1349
tp1350
Rp1351
ag3
(g41
S'\x91\xa6\x16?'
p1352
tp1353
Rp1354
ag3
(g41
S'\xb0C\x1b?'
p1355
tp1356
Rp1357
ag3
(g41
S'&f\n?'
p1358
tp1359
Rp1360
ag3
(g41
S'\xc3@\x15?'
p1361
tp1362
Rp1363
ag3
(g41
S'\x8d\\\x11?'
p1364
tp1365
Rp1366
ag3
(g41
S'\xa5\x92\x10?'
p1367
tp1368
Rp1369
ag3
(g41
S'\xc8c\xcb>'
p1370
tp1371
Rp1372
ag3
(g41
S'hA\x0c?'
p1373
tp1374
Rp1375
ag3
(g41
S'\xeex\x0b?'
p1376
tp1377
Rp1378
ag3
(g41
S'\xc6\xa6\xd5>'
p1379
tp1380
Rp1381
ag3
(g41
S'Z;\xe1>'
p1382
tp1383
Rp1384
ag3
(g41
S'ti\xc1>'
p1385
tp1386
Rp1387
ag3
(g41
S'\x9a~\xdd>'
p1388
tp1389
Rp1390
ag3
(g41
S"\x9f'\t?"
p1391
tp1392
Rp1393
ag3
(g41
S'+\x1f\xcd>'
p1394
tp1395
Rp1396
ag3
(g41
S'g\x19\xf5>'
p1397
tp1398
Rp1399
ag3
(g41
S'#]\x00?'
p1400
tp1401
Rp1402
ag3
(g41
S'y\xbc\xc7>'
p1403
tp1404
Rp1405
ag3
(g41
S'\xaf\xee\xfb>'
p1406
tp1407
Rp1408
ag3
(g41
S'\x7f\x0b\xf6>'
p1409
tp1410
Rp1411
ag3
(g41
S'\x0f\xe8\xfb>'
p1412
tp1413
Rp1414
ag3
(g41
S'o\x8a\xca>'
p1415
tp1416
Rp1417
ag3
(g41
S'\xdb\x97\xc8>'
p1418
tp1419
Rp1420
ag3
(g41
S'\xe1s\x01?'
p1421
tp1422
Rp1423
ag3
(g41
S'\xe59\xd2>'
p1424
tp1425
Rp1426
ag3
(g41
S'g\xa5\x17?'
p1427
tp1428
Rp1429
ag3
(g41
S'\xb9.\xbd>'
p1430
tp1431
Rp1432
ag3
(g41
S':\xc4\x0f?'
p1433
tp1434
Rp1435
ag3
(g41
S'\x10\x98\x17?'
p1436
tp1437
Rp1438
ag3
(g41
S'\xa8\x9c\xe7>'
p1439
tp1440
Rp1441
ag3
(g41
S'"\xe8\xf3>'
p1442
tp1443
Rp1444
ag3
(g41
S'\xc4~\xfb>'
p1445
tp1446
Rp1447
ag3
(g41
S'"\xe8 ?'
p1448
tp1449
Rp1450
ag3
(g41
S'1j\x14?'
p1451
tp1452
Rp1453
ag3
(g41
S'24\x00?'
p1454
tp1455
Rp1456
ag3
(g41
S'\x89\xb8\xed>'
p1457
tp1458
Rp1459
ag3
(g41
S'gW\xe2>'
p1460
tp1461
Rp1462
ag3
(g41
S'\xdc\xfe\xd5>'
p1463
tp1464
Rp1465
ag3
(g41
S'z\x93\xf2>'
p1466
tp1467
Rp1468
ag3
(g41
S'\x95H\xed>'
p1469
tp1470
Rp1471
ag3
(g41
S'\x8dU\xfb>'
p1472
tp1473
Rp1474
ag3
(g41
S'g\xb5\xdf>'
p1475
tp1476
Rp1477
ag3
(g41
S'\x88j\xc7>'
p1478
tp1479
Rp1480
ag3
(g41
S'\xbc\xc1\xc0>'
p1481
tp1482
Rp1483
ag3
(g41
S'\x87v\xf0>'
p1484
tp1485
Rp1486
ag3
(g41
S'\xfc\x8d\xee>'
p1487
tp1488
Rp1489
ag3
(g41
S'\xb0\xe0&?'
p1490
tp1491
Rp1492
ag3
(g41
S'\xac\x15\xcf>'
p1493
tp1494
Rp1495
ag3
(g41
S'\xe4\xaa\xcf>'
p1496
tp1497
Rp1498
ag3
(g41
S'\x1e\x14\xda>'
p1499
tp1500
Rp1501
ag3
(g41
S'z\x9f\xf9>'
p1502
tp1503
Rp1504
ag3
(g41
S'\x9e\xe1\xdc>'
p1505
tp1506
Rp1507
ag3
(g41
S'\\|\xdd>'
p1508
tp1509
Rp1510
ag3
(g41
S' \xd3\xe7>'
p1511
tp1512
Rp1513
ag3
(g41
S'\n_\x0e?'
p1514
tp1515
Rp1516
ag3
(g41
S'T*\xda>'
p1517
tp1518
Rp1519
ag3
(g41
S'/\xf7\x05?'
p1520
tp1521
Rp1522
ag3
(g41
S'cv\xff>'
p1523
tp1524
Rp1525
ag3
(g41
S'K\xa3\xf1>'
p1526
tp1527
Rp1528
ag3
(g41
S'\xeb4\xe7>'
p1529
tp1530
Rp1531
ag3
(g41
S'\xad7\x03?'
p1532
tp1533
Rp1534
ag3
(g41
S'E)\xd2>'
p1535
tp1536
Rp1537
ag3
(g41
S'Q\xa1\xed>'
p1538
tp1539
Rp1540
ag3
(g41
S'{3\x02?'
p1541
tp1542
Rp1543
ag3
(g41
S'(o\x06?'
p1544
tp1545
Rp1546
ag3
(g41
S'\xc1W\x1e?'
p1547
tp1548
Rp1549
ag3
(g41
S'\xf2\xf1\xd8>'
p1550
tp1551
Rp1552
ag3
(g41
S'\xe3\x97\xe8>'
p1553
tp1554
Rp1555
ag3
(g41
S'\x88\xe3\xf3>'
p1556
tp1557
Rp1558
ag3
(g41
S'\xe0\xbc\x05?'
p1559
tp1560
Rp1561
ag3
(g41
S'\xb2L\x06?'
p1562
tp1563
Rp1564
ag3
(g41
S'7\xf0\r?'
p1565
tp1566
Rp1567
ag3
(g41
S'9\xee\x0e?'
p1568
tp1569
Rp1570
ag3
(g41
S'M<\x1b?'
p1571
tp1572
Rp1573
ag3
(g41
S'\xdd\x98\xf0>'
p1574
tp1575
Rp1576
ag3
(g41
S'@\xe2\x07?'
p1577
tp1578
Rp1579
ag3
(g41
S'O\x7f\x1e?'
p1580
tp1581
Rp1582
ag3
(g41
S'\x9c\xdc+?'
p1583
tp1584
Rp1585
ag3
(g41
S'\xa8\xaf\xde>'
p1586
tp1587
Rp1588
ag3
(g41
S'\xf4>\x17?'
p1589
tp1590
Rp1591
ag3
(g41
S'oF\x02?'
p1592
tp1593
Rp1594
ag3
(g41
S'\xcf\xbc\xdf>'
p1595
tp1596
Rp1597
ag3
(g41
S'\xe1\xca\xdb>'
p1598
tp1599
Rp1600
ag3
(g41
S'\x93\x81\xd5>'
p1601
tp1602
Rp1603
ag3
(g41
S'rb\xea>'
p1604
tp1605
Rp1606
ag3
(g41
S'\xe9\x18\xe8>'
p1607
tp1608
Rp1609
ag3
(g41
S'Q\x9e\xe1>'
p1610
tp1611
Rp1612
ag3
(g41
S'`\x10\x06?'
p1613
tp1614
Rp1615
ag3
(g41
S'&\xe7\xf8>'
p1616
tp1617
Rp1618
ag3
(g41
S']_\x01?'
p1619
tp1620
Rp1621
ag3
(g41
S'N\x94\xf6>'
p1622
tp1623
Rp1624
ag3
(g41
S'8u\x0f?'
p1625
tp1626
Rp1627
ag3
(g41
S'\xf2\xd4\x0e?'
p1628
tp1629
Rp1630
ag3
(g41
S'I\x8c\x0b?'
p1631
tp1632
Rp1633
ag3
(g41
S'\xc7\xd6\xc6>'
p1634
tp1635
Rp1636
ag3
(g41
S'8\xe9\xe3>'
p1637
tp1638
Rp1639
ag3
(g41
S'\xd72\xf8>'
p1640
tp1641
Rp1642
ag3
(g41
S'\x8ew\xf8>'
p1643
tp1644
Rp1645
ag3
(g41
S'\xc1\xc2\xa1>'
p1646
tp1647
Rp1648
ag3
(g41
S'5\xfe\xe5>'
p1649
tp1650
Rp1651
ag3
(g41
S'R\n\xb5>'
p1652
tp1653
Rp1654
ag3
(g41
S'LG\xdd>'
p1655
tp1656
Rp1657
ag3
(g41
S'\x9c[\xcc>'
p1658
tp1659
Rp1660
ag3
(g41
S'\x944\xc5>'
p1661
tp1662
Rp1663
ag3
(g41
S'?@\xc6>'
p1664
tp1665
Rp1666
ag3
(g41
S'@^\x05?'
p1667
tp1668
Rp1669
ag3
(g41
S'X\xb1\xb5>'
p1670
tp1671
Rp1672
ag3
(g41
S"'\x0c\xda>"
p1673
tp1674
Rp1675
ag3
(g41
S'0\x8d\xc6>'
p1676
tp1677
Rp1678
ag3
(g41
S'\x83\xa3\xca>'
p1679
tp1680
Rp1681
ag3
(g41
S'Q@\xc9>'
p1682
tp1683
Rp1684
ag3
(g41
S'\xeep\xcf>'
p1685
tp1686
Rp1687
ag3
(g41
S'3\t\xf5>'
p1688
tp1689
Rp1690
ag3
(g41
S'\xffk\xd0>'
p1691
tp1692
Rp1693
ag3
(g41
S'\xda(\xd4>'
p1694
tp1695
Rp1696
ag3
(g41
S'\x8as\xaa>'
p1697
tp1698
Rp1699
ag3
(g41
S'\xdcC\xc6>'
p1700
tp1701
Rp1702
ag3
(g41
S'l(\xa2>'
p1703
tp1704
Rp1705
ag3
(g41
S'la\xe6>'
p1706
tp1707
Rp1708
ag3
(g41
S'\xfa\xba\xf1>'
p1709
tp1710
Rp1711
ag3
(g41
S'\x11B\x9a>'
p1712
tp1713
Rp1714
ag3
(g41
S'\xb2\xf5\xa3>'
p1715
tp1716
Rp1717
ag3
(g41
S'$\xe5\x8d>'
p1718
tp1719
Rp1720
ag3
(g41
S'\x08\xa2\xf5>'
p1721
tp1722
Rp1723
ag3
(g41
S'\xed\x96\xed>'
p1724
tp1725
Rp1726
ag3
(g41
S'^G\x08?'
p1727
tp1728
Rp1729
ag3
(g41
S't\x86\x04?'
p1730
tp1731
Rp1732
ag3
(g41
S'\x19\xe5\xcf>'
p1733
tp1734
Rp1735
ag3
(g41
S'\xbd\x8a\xca>'
p1736
tp1737
Rp1738
ag3
(g41
S'\x03*\xf3>'
p1739
tp1740
Rp1741
ag3
(g41
S'\xf9H\xd8>'
p1742
tp1743
Rp1744
ag3
(g41
S'\xe6~\xd8>'
p1745
tp1746
Rp1747
ag3
(g41
S'\x84^\xbb>'
p1748
tp1749
Rp1750
ag3
(g41
S'\x94\x19\xf8>'
p1751
tp1752
Rp1753
ag3
(g41
S'^x\x0c?'
p1754
tp1755
Rp1756
ag3
(g41
S'c\xc2\xdb>'
p1757
tp1758
Rp1759
ag3
(g41
S'\x93\r\xe9>'
p1760
tp1761
Rp1762
ag3
(g41
S'\x18\xfc\x0c?'
p1763
tp1764
Rp1765
ag3
(g41
S'\xe8E\xd9>'
p1766
tp1767
Rp1768
ag3
(g41
S'\x7f\xb4\x17?'
p1769
tp1770
Rp1771
ag3
(g41
S'P\xc1\xaf>'
p1772
tp1773
Rp1774
ag3
(g41
S'\xb0\xad\xaf>'
p1775
tp1776
Rp1777
ag3
(g41
S'\x06\xdc\xdc>'
p1778
tp1779
Rp1780
ag3
(g41
S'n\xac\x9e>'
p1781
tp1782
Rp1783
ag3
(g41
S'\xea\x83\xcf>'
p1784
tp1785
Rp1786
ag3
(g41
S'\xfa\xc5\x06?'
p1787
tp1788
Rp1789
ag3
(g41
S'\x12\xe7\x05?'
p1790
tp1791
Rp1792
ag3
(g41
S'5\xae\xf2>'
p1793
tp1794
Rp1795
ag3
(g41
S'\x9e\xcd\t?'
p1796
tp1797
Rp1798
ag3
(g41
S'\x04\x94\xe5>'
p1799
tp1800
Rp1801
ag3
(g41
S'\xf2\xe4\x13?'
p1802
tp1803
Rp1804
ag3
(g41
S'\x110\x0b?'
p1805
tp1806
Rp1807
ag3
(g41
S'\x80\xf3\n?'
p1808
tp1809
Rp1810
ag3
(g41
S'\xdf\x94\xe1>'
p1811
tp1812
Rp1813
ag3
(g41
S'9e\xab>'
p1814
tp1815
Rp1816
ag3
(g41
S'\x07\xd7\xd4>'
p1817
tp1818
Rp1819
ag3
(g41
S'H\x14\x0e?'
p1820
tp1821
Rp1822
ag3
(g41
S'\rS\xcb>'
p1823
tp1824
Rp1825
ag3
(g41
S'n\xc2\xd1>'
p1826
tp1827
Rp1828
ag3
(g41
S'g\xdc\xe8>'
p1829
tp1830
Rp1831
ag3
(g41
S'\xce\xcd\xbc>'
p1832
tp1833
Rp1834
ag3
(g41
S'\x8at\xea>'
p1835
tp1836
Rp1837
ag3
(g41
S',\x1f\xc2>'
p1838
tp1839
Rp1840
ag3
(g41
S'\xae\x17\xe1>'
p1841
tp1842
Rp1843
ag3
(g41
S'\xc2\xb6\xf7>'
p1844
tp1845
Rp1846
ag3
(g41
S'U\x80\xcb>'
p1847
tp1848
Rp1849
ag3
(g41
S'\xe76\xeb>'
p1850
tp1851
Rp1852
ag3
(g41
S'\xb2\xfd\xe2>'
p1853
tp1854
Rp1855
ag3
(g41
S'\xbc\xff\xf7>'
p1856
tp1857
Rp1858
ag3
(g41
S'L\xbd\xcb>'
p1859
tp1860
Rp1861
ag3
(g41
S'\xc3\xa3\xe4>'
p1862
tp1863
Rp1864
ag3
(g41
S'\xd5\xee\xf0>'
p1865
tp1866
Rp1867
ag3
(g41
S'j/\x0b?'
p1868
tp1869
Rp1870
ag3
(g41
S'\xcdn\xea>'
p1871
tp1872
Rp1873
ag3
(g41
S'\xbf\x15\xe5>'
p1874
tp1875
Rp1876
ag3
(g41
S'`-\xf7>'
p1877
tp1878
Rp1879
ag3
(g41
S'\xbe\x1c\xde>'
p1880
tp1881
Rp1882
ag3
(g41
S'6\x9c\xda>'
p1883
tp1884
Rp1885
ag3
(g41
S's\x06\xfb>'
p1886
tp1887
Rp1888
ag3
(g41
S'\x98g\x17?'
p1889
tp1890
Rp1891
ag3
(g41
S'\xdbo\xb7>'
p1892
tp1893
Rp1894
ag3
(g41
S'\xad\x89\xdd>'
p1895
tp1896
Rp1897
ag3
(g41
S'\xae\xfa\xc4>'
p1898
tp1899
Rp1900
ag3
(g41
S'\x03\xcc\x0c?'
p1901
tp1902
Rp1903
ag3
(g41
S'\xd9\x94\xf5>'
p1904
tp1905
Rp1906
ag3
(g41
S'\x0b\x16\xcd>'
p1907
tp1908
Rp1909
ag3
(g41
S'X\x01\xb4>'
p1910
tp1911
Rp1912
ag3
(g41
S'\xdb,\xc7>'
p1913
tp1914
Rp1915
ag3
(g41
S'\xde6\xc0>'
p1916
tp1917
Rp1918
ag3
(g41
S'\x03\x15u>'
p1919
tp1920
Rp1921
ag3
(g41
S'\xbf\x92\xd6>'
p1922
tp1923
Rp1924
ag3
(g41
S'\x8cO\xdc>'
p1925
tp1926
Rp1927
ag3
(g41
S'\x8c\x89\xa5>'
p1928
tp1929
Rp1930
ag3
(g41
S'\x8b\x82\xaa>'
p1931
tp1932
Rp1933
ag3
(g41
S'\x9c\xf5\xe9>'
p1934
tp1935
Rp1936
ag3
(g41
S'\x1a\xee\xf7>'
p1937
tp1938
Rp1939
ag3
(g41
S'\x08b\xd0>'
p1940
tp1941
Rp1942
ag3
(g41
S'X3\xb0>'
p1943
tp1944
Rp1945
ag3
(g41
S'n\xeb\xa9>'
p1946
tp1947
Rp1948
ag3
(g41
S'\xe90\x9c>'
p1949
tp1950
Rp1951
ag3
(g41
S'\x9a?\xd1>'
p1952
tp1953
Rp1954
ag3
(g41
S'\xc0\x92\x9e>'
p1955
tp1956
Rp1957
ag3
(g41
S'.D\xc0>'
p1958
tp1959
Rp1960
ag3
(g41
S'\xd1\x84\xcf>'
p1961
tp1962
Rp1963
ag3
(g41
S'\x07\\\xb2>'
p1964
tp1965
Rp1966
ag3
(g41
S'd9\xc2>'
p1967
tp1968
Rp1969
ag3
(g41
S'\xe0m\xb8>'
p1970
tp1971
Rp1972
ag3
(g41
S'\x96\xd9\x8f>'
p1973
tp1974
Rp1975
ag3
(g41
S'}\xe7\xa5>'
p1976
tp1977
Rp1978
ag3
(g41
S'\x81;\xa0>'
p1979
tp1980
Rp1981
ag3
(g41
S'!\xb3\xde>'
p1982
tp1983
Rp1984
ag3
(g41
S'\x0b\xda\xc6>'
p1985
tp1986
Rp1987
ag3
(g41
S']\xc2\xa7>'
p1988
tp1989
Rp1990
ag3
(g41
S'\xb2(\xd0>'
p1991
tp1992
Rp1993
ag3
(g41
S'\x1f\xfe\xf9>'
p1994
tp1995
Rp1996
ag3
(g41
S'\x06\x00\xde>'
p1997
tp1998
Rp1999
ag3
(g41
S'\x97\xbf\xb6>'
p2000
tp2001
Rp2002
ag3
(g41
S'\xb3=\xe1>'
p2003
tp2004
Rp2005
ag3
(g41
S'\x9f\xa1\xc4>'
p2006
tp2007
Rp2008
ag3
(g41
S'\x0b\x90\xc4>'
p2009
tp2010
Rp2011
ag3
(g41
S'Zq\xbd>'
p2012
tp2013
Rp2014
ag3
(g41
S'D2\xcf>'
p2015
tp2016
Rp2017
ag3
(g41
S'\xd9J\xbf>'
p2018
tp2019
Rp2020
ag3
(g41
S'9\x19\xad>'
p2021
tp2022
Rp2023
ag3
(g41
S'\xcf\x0f\xcc>'
p2024
tp2025
Rp2026
ag3
(g41
S'\xbc\xff\xac>'
p2027
tp2028
Rp2029
ag3
(g41
S'\xcb\x85\xe8>'
p2030
tp2031
Rp2032
ag3
(g41
S'\xcc\xb1\x8e>'
p2033
tp2034
Rp2035
ag3
(g41
S'lq\x99>'
p2036
tp2037
Rp2038
ag3
(g41
S'\x143\xc1>'
p2039
tp2040
Rp2041
ag3
(g41
S'\x04\xf1\x0e?'
p2042
tp2043
Rp2044
ag3
(g41
S'\x1cD\xc6>'
p2045
tp2046
Rp2047
ag3
(g41
S'\xa9\xbd\xb4>'
p2048
tp2049
Rp2050
ag3
(g41
S'\x05t\xd6>'
p2051
tp2052
Rp2053
ag3
(g41
S'\x1dA\xde>'
p2054
tp2055
Rp2056
ag3
(g41
S'l\x9b\xd6>'
p2057
tp2058
Rp2059
ag3
(g41
S'5\xb9\xcc>'
p2060
tp2061
Rp2062
ag3
(g41
S'\x0e\xae\xdd>'
p2063
tp2064
Rp2065
ag3
(g41
S't0\xaf>'
p2066
tp2067
Rp2068
ag3
(g41
S'\xd7\xaa\xa4>'
p2069
tp2070
Rp2071
ag3
(g41
S'\x82\xfb\xd5>'
p2072
tp2073
Rp2074
ag3
(g41
S'\x18\x02\xf3>'
p2075
tp2076
Rp2077
ag3
(g41
S'4\xa2\xda>'
p2078
tp2079
Rp2080
ag3
(g41
S'A\xa7\xaa>'
p2081
tp2082
Rp2083
ag3
(g41
S'[\xff\xfb>'
p2084
tp2085
Rp2086
ag3
(g41
S'\xa2W\xed>'
p2087
tp2088
Rp2089
ag3
(g41
S'\xa4w\xa6>'
p2090
tp2091
Rp2092
ag3
(g41
S'jh\x02?'
p2093
tp2094
Rp2095
ag3
(g41
S'\xc2\xd8\xca>'
p2096
tp2097
Rp2098
ag3
(g41
S'\xe8\xb0\xf0>'
p2099
tp2100
Rp2101
ag3
(g41
S'\x88\x8a\xc3>'
p2102
tp2103
Rp2104
ag3
(g41
S'"\x95\x04?'
p2105
tp2106
Rp2107
ag3
(g41
S'\xdd\xfb\xaa>'
p2108
tp2109
Rp2110
ag3
(g41
S';\xb8\xc2>'
p2111
tp2112
Rp2113
ag3
(g41
S'\xa2\xc5\xbe>'
p2114
tp2115
Rp2116
ag3
(g41
S'\x18\xe9\n?'
p2117
tp2118
Rp2119
ag3
(g41
S'\r\xbe\x05?'
p2120
tp2121
Rp2122
ag3
(g41
S'#Z\xe3>'
p2123
tp2124
Rp2125
ag3
(g41
S'\xf8\xa6\xb3>'
p2126
tp2127
Rp2128
ag3
(g41
S'\xfe\x1a\xeb>'
p2129
tp2130
Rp2131
ag3
(g41
S'/g\xc6>'
p2132
tp2133
Rp2134
ag3
(g41
S'p\x05\xf0>'
p2135
tp2136
Rp2137
ag3
(g41
S'd\xf4\xac>'
p2138
tp2139
Rp2140
ag3
(g41
S'\x90b\xae>'
p2141
tp2142
Rp2143
ag3
(g41
S"V'\xeb>"
p2144
tp2145
Rp2146
ag3
(g41
S'\x12=\xc5>'
p2147
tp2148
Rp2149
ag3
(g41
S'\x0f\xbe\xca>'
p2150
tp2151
Rp2152
ag3
(g41
S'\xaeZ\xfc>'
p2153
tp2154
Rp2155
ag3
(g41
S'w\xfa\x01?'
p2156
tp2157
Rp2158
ag3
(g41
S'\xaf\xb5\xbb>'
p2159
tp2160
Rp2161
ag3
(g41
S'-\x99\xd6>'
p2162
tp2163
Rp2164
ag3
(g41
S'\x1d\x8a\xc6>'
p2165
tp2166
Rp2167
ag3
(g41
S'\x17\x1f\xb6>'
p2168
tp2169
Rp2170
ag3
(g41
S'(\xef\xd9>'
p2171
tp2172
Rp2173
ag3
(g41
S'\x7f(\xda>'
p2174
tp2175
Rp2176
ag3
(g41
S'S\xe9\xc3>'
p2177
tp2178
Rp2179
ag3
(g41
S'\xc1\xcb\xdb>'
p2180
tp2181
Rp2182
ag3
(g41
S'*\x82\xac>'
p2183
tp2184
Rp2185
ag3
(g41
S'\x96\xa5\xa7>'
p2186
tp2187
Rp2188
ag3
(g41
S'\xde\x11\x8c>'
p2189
tp2190
Rp2191
ag3
(g41
S'\xc0\x0f\xa9>'
p2192
tp2193
Rp2194
ag3
(g41
S'\x03\xb7\xbf>'
p2195
tp2196
Rp2197
ag3
(g41
S'B\xcf\xd0>'
p2198
tp2199
Rp2200
ag3
(g41
S'\xb4\x1d\x9f>'
p2201
tp2202
Rp2203
ag3
(g41
S'Ps\xb5>'
p2204
tp2205
Rp2206
ag3
(g41
S'\xd4\x9d\xbd>'
p2207
tp2208
Rp2209
ag3
(g41
S'\xe1\x8f\xa9>'
p2210
tp2211
Rp2212
ag3
(g41
S's\xc4\x87>'
p2213
tp2214
Rp2215
ag3
(g41
S'\x95\xf9\xc3>'
p2216
tp2217
Rp2218
ag3
(g41
S'BU\x95>'
p2219
tp2220
Rp2221
ag3
(g41
S'\xb6d\xd1>'
p2222
tp2223
Rp2224
ag3
(g41
S'\xb81\x8a>'
p2225
tp2226
Rp2227
ag3
(g41
S'\xa4\xca\x9f>'
p2228
tp2229
Rp2230
ag3
(g41
S'\x14?\xb0>'
p2231
tp2232
Rp2233
ag3
(g41
S'\x0e\x8f\x8f>'
p2234
tp2235
Rp2236
ag3
(g41
S'\xb8\xc5\xa2>'
p2237
tp2238
Rp2239
ag3
(g41
S'y\xbb\x88>'
p2240
tp2241
Rp2242
ag3
(g41
S'\x86\x03\x99>'
p2243
tp2244
Rp2245
ag3
(g41
S'&\xa7\xc3>'
p2246
tp2247
Rp2248
ag3
(g41
S'2\xb7\x82>'
p2249
tp2250
Rp2251
ag3
(g41
S'\xc2>\xec>'
p2252
tp2253
Rp2254
ag3
(g41
S'\xec\x16\x94>'
p2255
tp2256
Rp2257
ag3
(g41
S'\xa8X\x97>'
p2258
tp2259
Rp2260
ag3
(g41
S'5\xdd\xe8>'
p2261
tp2262
Rp2263
ag3
(g41
S'\xfb#\xd0>'
p2264
tp2265
Rp2266
ag3
(g41
S'v\xfb\x9c>'
p2267
tp2268
Rp2269
ag3
(g41
S'\xc6\xb9\xc9>'
p2270
tp2271
Rp2272
ag3
(g41
S'\xe2\x1e\xb2>'
p2273
tp2274
Rp2275
ag3
(g41
S'^8\xb4>'
p2276
tp2277
Rp2278
ag3
(g41
S'\xf8\x8e\xb0>'
p2279
tp2280
Rp2281
ag3
(g41
S'.m\xb2>'
p2282
tp2283
Rp2284
ag3
(g41
S'I\x81\xe5>'
p2285
tp2286
Rp2287
ag3
(g41
S'\t\xf6\x95>'
p2288
tp2289
Rp2290
ag3
(g41
S'\x92p\x8e>'
p2291
tp2292
Rp2293
ag3
(g41
S'sC\xe0>'
p2294
tp2295
Rp2296
ag3
(g41
S'\xcb\xf5\xfb>'
p2297
tp2298
Rp2299
ag3
(g41
S'\xc8W\xae>'
p2300
tp2301
Rp2302
ag3
(g41
S'\xd6\xa2\xc8>'
p2303
tp2304
Rp2305
ag3
(g41
S'\x10\x17\xc4>'
p2306
tp2307
Rp2308
ag3
(g41
S'p\xb3\xa4>'
p2309
tp2310
Rp2311
ag3
(g41
S'\x98\x80\xba>'
p2312
tp2313
Rp2314
ag3
(g41
S'\xf3"\xc2>'
p2315
tp2316
Rp2317
ag3
(g41
S'\xac\x03\xb3>'
p2318
tp2319
Rp2320
ag3
(g41
S'p\xf1\x02?'
p2321
tp2322
Rp2323
ag3
(g41
S'gV\x97>'
p2324
tp2325
Rp2326
ag3
(g41
S'\xfb\x87\xe8>'
p2327
tp2328
Rp2329
ag3
(g41
S'\x9a\xd6\xfa>'
p2330
tp2331
Rp2332
ag3
(g41
S'\xe9\x0b\xa7>'
p2333
tp2334
Rp2335
ag3
(g41
S'\xeb\x83\xba>'
p2336
tp2337
Rp2338
ag3
(g41
S'\xb2\xa2\xbe>'
p2339
tp2340
Rp2341
ag3
(g41
S'\xa8\x18\x93>'
p2342
tp2343
Rp2344
ag3
(g41
S'\xaeL\x9a>'
p2345
tp2346
Rp2347
ag3
(g41
S'\x80\xc9\xb4>'
p2348
tp2349
Rp2350
ag3
(g41
S'\x83{\x86>'
p2351
tp2352
Rp2353
ag3
(g41
S'\x95n\xad>'
p2354
tp2355
Rp2356
ag3
(g41
S'H\xde\xbd>'
p2357
tp2358
Rp2359
ag3
(g41
S'\xbd\xb8\xd3>'
p2360
tp2361
Rp2362
ag3
(g41
S'&T\xe0>'
p2363
tp2364
Rp2365
ag3
(g41
S'\xd2\x8d\x01?'
p2366
tp2367
Rp2368
ag3
(g41
S'Jg\xaf>'
p2369
tp2370
Rp2371
ag3
(g41
S'\xfe|\xbb>'
p2372
tp2373
Rp2374
ag3
(g41
S'W\x19\xa3>'
p2375
tp2376
Rp2377
ag3
(g41
S'\xef/\xea>'
p2378
tp2379
Rp2380
ag3
(g41
S'0\x8a\xaa>'
p2381
tp2382
Rp2383
ag3
(g41
S'Nx\xbd>'
p2384
tp2385
Rp2386
ag3
(g41
S'`\x0c\xa3>'
p2387
tp2388
Rp2389
ag3
(g41
S'\xa50\xa1>'
p2390
tp2391
Rp2392
ag3
(g41
S'e\x04\xe9>'
p2393
tp2394
Rp2395
ag3
(g41
S'\xa0\xa1\xc2>'
p2396
tp2397
Rp2398
ag3
(g41
S'\xf7\xa2\xd2>'
p2399
tp2400
Rp2401
ag3
(g41
S'|\xf4\xb8>'
p2402
tp2403
Rp2404
ag3
(g41
S')*\xee>'
p2405
tp2406
Rp2407
ag3
(g41
S'\x7f)\xd6>'
p2408
tp2409
Rp2410
ag3
(g41
S'\xa3W\xb2>'
p2411
tp2412
Rp2413
ag3
(g41
S'CH\x82>'
p2414
tp2415
Rp2416
ag3
(g41
S'W\xb9\xc4>'
p2417
tp2418
Rp2419
ag3
(g41
S'\xa2o\xf3>'
p2420
tp2421
Rp2422
ag3
(g41
S'\x86\x9e\xcb>'
p2423
tp2424
Rp2425
ag3
(g41
S'\x84\x03\xc7>'
p2426
tp2427
Rp2428
ag3
(g41
S'\x86a\xd5>'
p2429
tp2430
Rp2431
ag3
(g41
S'\x1c\x90\xc9>'
p2432
tp2433
Rp2434
ag3
(g41
S'\xa7/\xaf>'
p2435
tp2436
Rp2437
ag3
(g41
S'\x86\x13\x98>'
p2438
tp2439
Rp2440
ag3
(g41
S'D\xe5\xcc>'
p2441
tp2442
Rp2443
ag3
(g41
S'\xc2{\xd9>'
p2444
tp2445
Rp2446
ag3
(g41
S'N\xe4\xb9>'
p2447
tp2448
Rp2449
ag3
(g41
S'\xfe\x1b\x9e>'
p2450
tp2451
Rp2452
ag3
(g41
S'\xe9\xe8\xd2>'
p2453
tp2454
Rp2455
ag3
(g41
S'bQ\xa1>'
p2456
tp2457
Rp2458
ag3
(g41
S'\xeb_\xb4>'
p2459
tp2460
Rp2461
ag3
(g41
S'\xb8\xb7\x97>'
p2462
tp2463
Rp2464
ag3
(g41
S'\x0b~\x98>'
p2465
tp2466
Rp2467
ag3
(g41
S'\xf7\xff\xbf>'
p2468
tp2469
Rp2470
ag3
(g41
S'\xf6#\xb6>'
p2471
tp2472
Rp2473
ag3
(g41
S'\x12-\x90>'
p2474
tp2475
Rp2476
ag3
(g41
S'\xba\xa4\xc3>'
p2477
tp2478
Rp2479
ag3
(g41
S'FRn>'
p2480
tp2481
Rp2482
ag3
(g41
S'j\xb6\xba>'
p2483
tp2484
Rp2485
ag3
(g41
S'\xfb\x1a\xc7>'
p2486
tp2487
Rp2488
ag3
(g41
S'n\xd8N>'
p2489
tp2490
Rp2491
ag3
(g41
S'\xac=\xb0>'
p2492
tp2493
Rp2494
ag3
(g41
S'\xb9\xde\xa5>'
p2495
tp2496
Rp2497
ag3
(g41
S't!\xa4>'
p2498
tp2499
Rp2500
ag3
(g41
S'\x98R\xd0>'
p2501
tp2502
Rp2503
ag3
(g41
S'\x1c\xe1\xad>'
p2504
tp2505
Rp2506
ag3
(g41
S'<\xf0\xe3>'
p2507
tp2508
Rp2509
ag3
(g41
S'\x02P\xa2>'
p2510
tp2511
Rp2512
ag3
(g41
S'UC\xb5>'
p2513
tp2514
Rp2515
ag3
(g41
S'\x99F\x89>'
p2516
tp2517
Rp2518
ag3
(g41
S's\xa7\xba>'
p2519
tp2520
Rp2521
ag3
(g41
S'A\xa7\x8e>'
p2522
tp2523
Rp2524
ag3
(g41
S'N3\xab>'
p2525
tp2526
Rp2527
ag3
(g41
S'MT\xb8>'
p2528
tp2529
Rp2530
ag3
(g41
S'\xa2N\x90>'
p2531
tp2532
Rp2533
ag3
(g41
S'D\xca\xb5>'
p2534
tp2535
Rp2536
ag3
(g41
S'\xcd\x8d\x8e>'
p2537
tp2538
Rp2539
ag3
(g41
S'\x0er\x89>'
p2540
tp2541
Rp2542
ag3
(g41
S'\xae4\x9e>'
p2543
tp2544
Rp2545
ag3
(g41
S'[\r\xa3>'
p2546
tp2547
Rp2548
ag3
(g41
S'C\xcf\x99>'
p2549
tp2550
Rp2551
ag3
(g41
S'y\xd6\xa0>'
p2552
tp2553
Rp2554
ag3
(g41
S'\x89\x91\xab>'
p2555
tp2556
Rp2557
ag3
(g41
S'\xcc\x9e\xa7>'
p2558
tp2559
Rp2560
ag3
(g41
S'\xf2\xa7\xdd>'
p2561
tp2562
Rp2563
ag3
(g41
S'\xbc\x00\x97>'
p2564
tp2565
Rp2566
ag3
(g41
S'\xbd\xcc\x9c>'
p2567
tp2568
Rp2569
ag3
(g41
S'\x8c#\x92>'
p2570
tp2571
Rp2572
ag3
(g41
S'`\x83\xb0>'
p2573
tp2574
Rp2575
ag3
(g41
S',\xc8\x98>'
p2576
tp2577
Rp2578
ag3
(g41
S'H\xa4\xc0>'
p2579
tp2580
Rp2581
ag3
(g41
S'N\x0e\xe1>'
p2582
tp2583
Rp2584
ag3
(g41
S'\x07\xca\xa0>'
p2585
tp2586
Rp2587
ag3
(g41
S'\x88\x17\xd6>'
p2588
tp2589
Rp2590
ag3
(g41
S'm\x89\x90>'
p2591
tp2592
Rp2593
ag3
(g41
S'\xc4\x12\x85>'
p2594
tp2595
Rp2596
ag3
(g41
S'\x10o\xb6>'
p2597
tp2598
Rp2599
ag3
(g41
S'0\xae\xd0>'
p2600
tp2601
Rp2602
ag3
(g41
S'T\xc0\x96>'
p2603
tp2604
Rp2605
ag3
(g41
S'\xf7\xfa\xc1>'
p2606
tp2607
Rp2608
ag3
(g41
S'K\xb0\xb1>'
p2609
tp2610
Rp2611
ag3
(g41
S'G\xcc\xbb>'
p2612
tp2613
Rp2614
ag3
(g41
S'\xac,\xb6>'
p2615
tp2616
Rp2617
ag3
(g41
S'\x96\x87\xb9>'
p2618
tp2619
Rp2620
ag3
(g41
S'\xc6\xca\xa2>'
p2621
tp2622
Rp2623
ag3
(g41
S'\xd2\x1a\xa1>'
p2624
tp2625
Rp2626
ag3
(g41
S'K]\xc3>'
p2627
tp2628
Rp2629
ag3
(g41
S'\xden\x90>'
p2630
tp2631
Rp2632
ag3
(g41
S'$-\xc3>'
p2633
tp2634
Rp2635
ag3
(g41
S'&\x86\xa4>'
p2636
tp2637
Rp2638
ag3
(g41
S'\x17\xb9\xa8>'
p2639
tp2640
Rp2641
ag3
(g41
S'\xa4\xed\xb2>'
p2642
tp2643
Rp2644
ag3
(g41
S'^\x91x>'
p2645
tp2646
Rp2647
ag3
(g41
S'1\xd9\xc8>'
p2648
tp2649
Rp2650
ag3
(g41
S'\x17{\xae>'
p2651
tp2652
Rp2653
ag3
(g41
S'\x9d\xe6\xa5>'
p2654
tp2655
Rp2656
ag3
(g41
S'2\xef\xba>'
p2657
tp2658
Rp2659
ag3
(g41
S'v\x9a\xa8>'
p2660
tp2661
Rp2662
ag3
(g41
S'\xee\xf6\xba>'
p2663
tp2664
Rp2665
ag3
(g41
S'\xaey\x9d>'
p2666
tp2667
Rp2668
ag3
(g41
S'x\x16\x8e>'
p2669
tp2670
Rp2671
ag3
(g41
S'\xb4\x87\xc1>'
p2672
tp2673
Rp2674
ag3
(g41
S'8r\xb4>'
p2675
tp2676
Rp2677
ag3
(g41
S'Ut\xb9>'
p2678
tp2679
Rp2680
ag3
(g41
S'\x10\x95\xd1>'
p2681
tp2682
Rp2683
ag3
(g41
S'\xe1n\xab>'
p2684
tp2685
Rp2686
ag3
(g41
S'\xc2}\xef>'
p2687
tp2688
Rp2689
ag3
(g41
S'\xaeH\x9e>'
p2690
tp2691
Rp2692
ag3
(g41
S'\x05)\xae>'
p2693
tp2694
Rp2695
ag3
(g41
S'b\xcc\xd2>'
p2696
tp2697
Rp2698
ag3
(g41
S'b0\xcd>'
p2699
tp2700
Rp2701
ag3
(g41
S'\xc1\xe9\xff>'
p2702
tp2703
Rp2704
ag3
(g41
S'B\xf2\xb7>'
p2705
tp2706
Rp2707
ag3
(g41
S'?\xe2\x8f>'
p2708
tp2709
Rp2710
ag3
(g41
S'\x03(\x9f>'
p2711
tp2712
Rp2713
asS'test_acuracy'
p2714
I0
sS'train_accuracy'
p2715
(lp2716
g3
(g7
S't\xd1E\x17]tI@'
p2717
tp2718
Rp2719
ag3
(g7
S'\xd1^B{\t\xedI@'
p2720
tp2721
Rp2722
ag3
(g7
S'\x92$I\x92$IH@'
p2723
tp2724
Rp2725
ag3
(g7
S'=\xcf\xf3<\xcf\xf34@'
p2726
tp2727
Rp2728
ag3
(g7
S'F\x17]t\xd1EF@'
p2729
tp2730
Rp2731
ag3
(g7
S'\xd9\x89\x9d\xd8\x89\x1dF@'
p2732
tp2733
Rp2734
ag3
(g7
S'\xc5N\xec\xc4N\xacD@'
p2735
tp2736
Rp2737
ag3
(g7
S'=\xcf\xf3<\xcf\xf3D@'
p2738
tp2739
Rp2740
ag3
(g7
S'oz\xd3\x9b\xde\xf4@@'
p2741
tp2742
Rp2743
ag3
(g7
S'\x00\x00\x00\x00\x00\xe0E@'
p2744
tp2745
Rp2746
ag3
(g7
S'b\x18\x86a\x18\x86C@'
p2747
tp2748
Rp2749
ag3
(g7
S'O\xec\xc4N\xec\xc4>@'
p2750
tp2751
Rp2752
ag3
(g7
S'\xab\xaa\xaa\xaa\xaa\xaa@@'
p2753
tp2754
Rp2755
ag3
(g7
S'\x15s\xab3R1?@'
p2756
tp2757
Rp2758
ag3
(g7
S'\xab\xaa\xaa\xaa\xaa\xaa@@'
p2759
tp2760
Rp2761
ag3
(g7
S'"5\xc1x+\xfb@@'
p2762
tp2763
Rp2764
ag3
(g7
S'\xc30\x0c\xc30\x0cC@'
p2765
tp2766
Rp2767
ag3
(g7
S'\x00\x00\x00\x00\x00\x80@@'
p2768
tp2769
Rp2770
ag3
(g7
S'\x92$I\x92$iA@'
p2771
tp2772
Rp2773
ag3
(g7
S'\xdf\x88\x02\x93N\xcdC@'
p2774
tp2775
Rp2776
ag3
(g7
S'\x14;\xb1\x13;qJ@'
p2777
tp2778
Rp2779
ag3
(g7
S'I\x92$I\x92\xe4I@'
p2780
tp2781
Rp2782
ag3
(g7
S'C\x16\xb2\x90\x85,F@'
p2783
tp2784
Rp2785
ag3
(g7
S'\x8a\x9d\xd8\x89\x9d\xd8,@'
p2786
tp2787
Rp2788
ag3
(g7
S'\x00\x00\x00\x00\x00\x00I@'
p2789
tp2790
Rp2791
ag3
(g7
S'\xc7q\x1c\xc7q\x9cG@'
p2792
tp2793
Rp2794
ag3
(g7
S'\x0c\xc30\x0c\xc30J@'
p2795
tp2796
Rp2797
ag3
(g7
S'\t\xed%\xb4\x97PK@'
p2798
tp2799
Rp2800
ag3
(g7
S'~\x0e\xa9\t\xc6[K@'
p2801
tp2802
Rp2803
ag3
(g7
S'\x9e\xe7y\x9e\xe7yD@'
p2804
tp2805
Rp2806
ag3
(g7
S't\xd1E\x17]tI@'
p2807
tp2808
Rp2809
ag3
(g7
S'\x00\x00\x00\x00\x00\x00I@'
p2810
tp2811
Rp2812
ag3
(g7
S'\x0c\xc30\x0c\xc30J@'
p2813
tp2814
Rp2815
ag3
(g7
S'\xdf\x88\x02\x93N\xcdC@'
p2816
tp2817
Rp2818
ag3
(g7
S'\xba\xe8\xa2\x8b.\xbaF@'
p2819
tp2820
Rp2821
ag3
(g7
S'\xe9\xa2\x8b.\xba\xe8I@'
p2822
tp2823
Rp2824
ag3
(g7
S'\xcd\x83\xdc\xf5\xb3\xc5F@'
p2825
tp2826
Rp2827
ag3
(g7
S'\x00\x00\x00\x00\x00\x80F@'
p2828
tp2829
Rp2830
ag3
(g7
S'UUUUUUG@'
p2831
tp2832
Rp2833
ag3
(g7
S'j\x82\xf1V\xf69E@'
p2834
tp2835
Rp2836
ag3
(g7
S'\x8a\x9d\xd8\x89\x9d\xd8L@'
p2837
tp2838
Rp2839
ag3
(g7
S'b\x18\x86a\x18\x86M@'
p2840
tp2841
Rp2842
ag3
(g7
S'%I\x92$I\xb2O@'
p2843
tp2844
Rp2845
ag3
(g7
S'I\x92$I\x92\x04M@'
p2846
tp2847
Rp2848
ag3
(g7
S'\x00\x00\x00\x00\x00\x00I@'
p2849
tp2850
Rp2851
ag3
(g7
S'\xab\xaa\xaa\xaa\xaa\xaaP@'
p2852
tp2853
Rp2854
ag3
(g7
S'\xd5\x04\xe3\xad\xecsQ@'
p2855
tp2856
Rp2857
ag3
(g7
S'{\t\xed%\xb4\x17N@'
p2858
tp2859
Rp2860
ag3
(g7
S'\xeaMoz\xd3\x9bF@'
p2861
tp2862
Rp2863
ag3
(g7
S'B{\t\xed%\xb4L@'
p2864
tp2865
Rp2866
ag3
(g7
S'\x0c\x07\xd1\xe3\xbbpL@'
p2867
tp2868
Rp2869
ag3
(g7
S'\x00\x00\x00\x00\x00\x00G@'
p2870
tp2871
Rp2872
ag3
(g7
S'-d!\x0bY\xc8H@'
p2873
tp2874
Rp2875
ag3
(g7
S'b\x18\x86a\x18\x86M@'
p2876
tp2877
Rp2878
ag3
(g7
S'0\xde\xca>\x87\xd4K@'
p2879
tp2880
Rp2881
ag3
(g7
S'\x0c\xc30\x0c\xc30J@'
p2882
tp2883
Rp2884
ag3
(g7
S'\xc30\x0c\xc30\x0cM@'
p2885
tp2886
Rp2887
ag3
(g7
S'\xc30\x0c\xc30\x0cC@'
p2888
tp2889
Rp2890
ag3
(g7
S'O\xec\xc4N\xec\x84H@'
p2891
tp2892
Rp2893
ag3
(g7
S'9\x8e\xe38\x8ecJ@'
p2894
tp2895
Rp2896
ag3
(g7
S'I\x92$I\x92$K@'
p2897
tp2898
Rp2899
ag3
(g7
S'\x8e(0\xe9\xd4<J@'
p2900
tp2901
Rp2902
ag3
(g7
S'\xcd\x83\xdc\xf5\xb3\xc5F@'
p2903
tp2904
Rp2905
ag3
(g7
S'5\xc1x+\xfb\x1cG@'
p2906
tp2907
Rp2908
ag3
(g7
S'\x9e\xd8\x89\x9d\xd8IN@'
p2909
tp2910
Rp2911
ag3
(g7
S'\t\xed%\xb4\x97PK@'
p2912
tp2913
Rp2914
ag3
(g7
S'\x84\xe5\x9eFXnI@'
p2915
tp2916
Rp2917
ag3
(g7
S'\xe8y\x9e\xe7y\x9eK@'
p2918
tp2919
Rp2920
ag3
(g7
S'%I\x92$I\x92L@'
p2921
tp2922
Rp2923
ag3
(g7
S'\xd9\x89\x9d\xd8\x89]L@'
p2924
tp2925
Rp2926
ag3
(g7
S'z\x9e\xe7y\x9e\xe7O@'
p2927
tp2928
Rp2929
ag3
(g7
S'n\xdb\xb6m\xdb\xb6I@'
p2930
tp2931
Rp2932
ag3
(g7
S'\x05&\x9d\x9a\x07\xb9K@'
p2933
tp2934
Rp2935
ag3
(g7
S'\x0c\xc30\x0c\xc30P@'
p2936
tp2937
Rp2938
ag3
(g7
S'\xb1\x13;\xb1\x13{I@'
p2939
tp2940
Rp2941
ag3
(g7
S'\x17]t\xd1E\x17M@'
p2942
tp2943
Rp2944
ag3
(g7
S'\x9e\xe7y\x9e\xe7yN@'
p2945
tp2946
Rp2947
ag3
(g7
S'\xab\xaa\xaa\xaa\xaa\xaa:@'
p2948
tp2949
Rp2950
ag3
(g7
S'\xe8y\x9e\xe7y\x9eK@'
p2951
tp2952
Rp2953
ag3
(g7
S'\x92$I\x92$\xe9M@'
p2954
tp2955
Rp2956
ag3
(g7
S'\x9b`\xbc\x95}\x0eH@'
p2957
tp2958
Rp2959
ag3
(g7
S'n\xdb\xb6m\xdbvM@'
p2960
tp2961
Rp2962
ag3
(g7
S'O\xec\xc4N\xec\x84H@'
p2963
tp2964
Rp2965
ag3
(g7
S'\x00\x00\x00\x00\x00\x00I@'
p2966
tp2967
Rp2968
ag3
(g7
S'\x9e\xe7y\x9e\xe7yD@'
p2969
tp2970
Rp2971
ag3
(g7
S'\xb7m\xdb\xb6m\xdbF@'
p2972
tp2973
Rp2974
ag3
(g7
S'\xb1\x13;\xb1\x13\xbbO@'
p2975
tp2976
Rp2977
ag3
(g7
S'\xab\xaa\xaa\xaa\xaa\xaaJ@'
p2978
tp2979
Rp2980
ag3
(g7
S'\x86a\x18\x86a\x18L@'
p2981
tp2982
Rp2983
ag3
(g7
S'\xe8y\x9e\xe7y\x9eK@'
p2984
tp2985
Rp2986
ag3
(g7
S'I\x92$I\x92\x14R@'
p2987
tp2988
Rp2989
ag3
(g7
S'|#\nL:5M@'
p2990
tp2991
Rp2992
ag3
(g7
S'\xfb\x1cR\x13\x8c7Q@'
p2993
tp2994
Rp2995
ag3
(g7
S'\x18\x86a\x18\x86aQ@'
p2996
tp2997
Rp2998
ag3
(g7
S'\xbc\x95}\x0e\xa9\tP@'
p2999
tp3000
Rp3001
ag3
(g7
S'\x9e\xe7y\x9e\xe7yN@'
p3002
tp3003
Rp3004
ag3
(g7
S'\x00\x00\x00\x00\x00\x80J@'
p3005
tp3006
Rp3007
ag3
(g7
S'\xd1E\x17]t\xd1O@'
p3008
tp3009
Rp3010
ag3
(g7
S"'vb'v\xe2K@"
p3011
tp3012
Rp3013
ag3
(g7
S'O\xcd\x83\xdc\xf5\xb3M@'
p3014
tp3015
Rp3016
ag3
(g7
S'\x92$I\x92$iQ@'
p3017
tp3018
Rp3019
ag3
(g7
S'\x0c\x07\xd1\xe3\xbbpL@'
p3020
tp3021
Rp3022
ag3
(g7
S'\x00\x00\x00\x00\x00\x00N@'
p3023
tp3024
Rp3025
ag3
(g7
S'\x13\xdaKh/\xa1M@'
p3026
tp3027
Rp3028
ag3
(g7
S'%I\x92$I\x92L@'
p3029
tp3030
Rp3031
ag3
(g7
S'%I\x92$I\xb2O@'
p3032
tp3033
Rp3034
ag3
(g7
S'\xab\xaa\xaa\xaa\xaa\xaaP@'
p3035
tp3036
Rp3037
ag3
(g7
S'\xab\xaa\xaa\xaa\xaa\xaaJ@'
p3038
tp3039
Rp3040
ag3
(g7
S'e\x9fCj\x82\xf1I@'
p3041
tp3042
Rp3043
ag3
(g7
S'\xbd\xe9Moz\xd3K@'
p3044
tp3045
Rp3046
ag3
(g7
S'\xab\xaa\xaa\xaa\xaa\xaaP@'
p3047
tp3048
Rp3049
ag3
(g7
S'\x14;\xb1\x13;\x11Q@'
p3050
tp3051
Rp3052
ag3
(g7
S']t\xd1E\x17]P@'
p3053
tp3054
Rp3055
ag3
(g7
S'\xe1 z|\x17\x0eP@'
p3056
tp3057
Rp3058
ag3
(g7
S'\xab\xaa\xaa\xaa\xaa\xaaP@'
p3059
tp3060
Rp3061
ag3
(g7
S'\x00\x00\x00\x00\x00\x00N@'
p3062
tp3063
Rp3064
ag3
(g7
S'\x00\x00\x00\x00\x00@P@'
p3065
tp3066
Rp3067
ag3
(g7
S'\x00\x00\x00\x00\x00\x00N@'
p3068
tp3069
Rp3070
ag3
(g7
S'\xab\xaa\xaa\xaa\xaa\xaaP@'
p3071
tp3072
Rp3073
ag3
(g7
S'\x86a\x18\x86a\x18L@'
p3074
tp3075
Rp3076
ag3
(g7
S'\xae\xecsHM0N@'
p3077
tp3078
Rp3079
ag3
(g7
S'\xb1\xdc\xd3\x08\xcb\xbdM@'
p3080
tp3081
Rp3082
ag3
(g7
S'\xdb\xb6m\xdb\xb6mO@'
p3083
tp3084
Rp3085
ag3
(g7
S'\xec\xc4N\xec\xc4\xceM@'
p3086
tp3087
Rp3088
ag3
(g7
S'\x9e\xe7y\x9e\xe7yN@'
p3089
tp3090
Rp3091
ag3
(g7
S'\x00\x00\x00\x00\x00\x00N@'
p3092
tp3093
Rp3094
ag3
(g7
S'\x00\x00\x00\x00\x00@O@'
p3095
tp3096
Rp3097
ag3
(g7
S'\xdb\xb6m\xdb\xb6mP@'
p3098
tp3099
Rp3100
ag3
(g7
S'\xd9\x89\x9d\xd8\x89]L@'
p3101
tp3102
Rp3103
ag3
(g7
S'\x17]t\xd1E\x17M@'
p3104
tp3105
Rp3106
ag3
(g7
S'\x0c\xc30\x0c\xc30P@'
p3107
tp3108
Rp3109
ag3
(g7
S'\xd1E\x17]t\xd1O@'
p3110
tp3111
Rp3112
ag3
(g7
S']t\xd1E\x17]P@'
p3113
tp3114
Rp3115
ag3
(g7
S'\x00\x00\x00\x00\x00\x00N@'
p3116
tp3117
Rp3118
ag3
(g7
S'\xae\xecsHM0N@'
p3119
tp3120
Rp3121
ag3
(g7
S'\xf4<\xcf\xf3<\xcfR@'
p3122
tp3123
Rp3124
ag3
(g7
S'1\x0c\xc30\x0c\xc3S@'
p3125
tp3126
Rp3127
ag3
(g7
S'n\xdb\xb6m\xdb\xf6P@'
p3128
tp3129
Rp3130
ag3
(g7
S';\xb1\x13;\xb1SM@'
p3131
tp3132
Rp3133
ag3
(g7
S';\xb1\x13;\xb1\xd3P@'
p3134
tp3135
Rp3136
ag3
(g7
S'\x9e\xe7y\x9e\xe7yN@'
p3137
tp3138
Rp3139
ag3
(g7
S'\xc7q\x1c\xc7q\\Q@'
p3140
tp3141
Rp3142
ag3
(g7
S'\xb7m\xdb\xb6mKP@'
p3143
tp3144
Rp3145
ag3
(g7
S'O\xec\xc4N\xec\xc4N@'
p3146
tp3147
Rp3148
ag3
(g7
S'\x14;\xb1\x13;\x11Q@'
p3149
tp3150
Rp3151
ag3
(g7
S'\xac\x0c\xdf\x88\x02\x93Q@'
p3152
tp3153
Rp3154
ag3
(g7
S'z\x9e\xe7y\x9e\xe7P@'
p3155
tp3156
Rp3157
ag3
(g7
S'\x86a\x18\x86a\x18R@'
p3158
tp3159
Rp3160
ag3
(g7
S'\xbc\x95}\x0e\xa9\tP@'
p3161
tp3162
Rp3163
ag3
(g7
S'\x00\x00\x00\x00\x00\x00N@'
p3164
tp3165
Rp3166
ag3
(g7
S'\x0c\xc30\x0c\xc30J@'
p3167
tp3168
Rp3169
ag3
(g7
S'UUUUUUR@'
p3170
tp3171
Rp3172
ag3
(g7
S'\xe48\x8e\xe38\x8eN@'
p3173
tp3174
Rp3175
ag3
(g7
S'\xdb\xb6m\xdb\xb6mP@'
p3176
tp3177
Rp3178
ag3
(g7
S'\xb4\x97\xd0^B{O@'
p3179
tp3180
Rp3181
ag3
(g7
S'\xb7m\xdb\xb6m[N@'
p3182
tp3183
Rp3184
ag3
(g7
S'_B{\t\xed\xe5P@'
p3185
tp3186
Rp3187
ag3
(g7
S'\x00\x00\x00\x00\x00\x00N@'
p3188
tp3189
Rp3190
ag3
(g7
S'\xd7\xcf\x16+\xc37L@'
p3191
tp3192
Rp3193
ag3
(g7
S'\xdabe\xf8F\x14Q@'
p3194
tp3195
Rp3196
ag3
(g7
S'z\x9e\xe7y\x9e\xe7P@'
p3197
tp3198
Rp3199
ag3
(g7
S'=\xcf\xf3<\xcf\xf3N@'
p3200
tp3201
Rp3202
ag3
(g7
S'HM0\xde\xca\xbeP@'
p3203
tp3204
Rp3205
ag3
(g7
S'\x13\xdaKh/\xa1M@'
p3206
tp3207
Rp3208
ag3
(g7
S'oz\xd3\x9b\xde\xf4P@'
p3209
tp3210
Rp3211
ag3
(g7
S'\x17]t\xd1E\x97P@'
p3212
tp3213
Rp3214
ag3
(g7
S'\x0c\xc30\x0c\xc30P@'
p3215
tp3216
Rp3217
ag3
(g7
S'\x14;\xb1\x13;\x11Q@'
p3218
tp3219
Rp3220
ag3
(g7
S'\xc5N\xec\xc4N\x8cQ@'
p3221
tp3222
Rp3223
ag3
(g7
S'\xc2rO#,wO@'
p3224
tp3225
Rp3226
ag3
(g7
S'\x92$I\x92$\xe9M@'
p3227
tp3228
Rp3229
ag3
(g7
S'oz\xd3\x9b\xde\xf4J@'
p3230
tp3231
Rp3232
ag3
(g7
S'B{\t\xed%4P@'
p3233
tp3234
Rp3235
ag3
(g7
S'\x9c\xde\xf4\xa67\xbdO@'
p3236
tp3237
Rp3238
ag3
(g7
S'\xc7q\x1c\xc7q\\Q@'
p3239
tp3240
Rp3241
ag3
(g7
S'5\x0fr\xd7\xcf\x16P@'
p3242
tp3243
Rp3244
ag3
(g7
S'\xdb\xb6m\xdb\xb6mO@'
p3245
tp3246
Rp3247
ag3
(g7
S'\xec\xc4N\xec\xc4NQ@'
p3248
tp3249
Rp3250
ag3
(g7
S"vb'vb\x07R@"
p3251
tp3252
Rp3253
ag3
(g7
S'\x9e\xd8\x89\x9d\xd8\xc9Q@'
p3254
tp3255
Rp3256
ag3
(g7
S'\x00\x00\x00\x00\x00\x80Q@'
p3257
tp3258
Rp3259
ag3
(g7
S'\x8a\x9d\xd8\x89\x9dxS@'
p3260
tp3261
Rp3262
ag3
(g7
S'b\x18\x86a\x18\x86S@'
p3263
tp3264
Rp3265
ag3
(g7
S'\x92$I\x92$iQ@'
p3266
tp3267
Rp3268
ag3
(g7
S'{\t\xed%\xb4\x97Q@'
p3269
tp3270
Rp3271
ag3
(g7
S'\x00\x00\x00\x00\x00\x00R@'
p3272
tp3273
Rp3274
ag3
(g7
S'\xf4<\xcf\xf3<\xcfR@'
p3275
tp3276
Rp3277
ag3
(g7
S'\xe8y\x9e\xe7y\x9eQ@'
p3278
tp3279
Rp3280
ag3
(g7
S'\x00\x00\x00\x00\x00\x80Q@'
p3281
tp3282
Rp3283
ag3
(g7
S'\xedsHM0\xdeR@'
p3284
tp3285
Rp3286
ag3
(g7
S'z\x9e\xe7y\x9e\xe7P@'
p3287
tp3288
Rp3289
ag3
(g7
S'"5\xc1x+\xfbP@'
p3290
tp3291
Rp3292
ag3
(g7
S'h\x8b\x95\xe1\x1bQR@'
p3293
tp3294
Rp3295
ag3
(g7
S"'vb'v\x82R@"
p3296
tp3297
Rp3298
ag3
(g7
S'h/\xa1\xbd\x846S@'
p3299
tp3300
Rp3301
ag3
(g7
S'n\xdb\xb6m\xdb\x16T@'
p3302
tp3303
Rp3304
ag3
(g7
S'\x98tj\x1e\xe4\xaeO@'
p3305
tp3306
Rp3307
ag3
(g7
S'\xab\xaa\xaa\xaa\xaa\xaaP@'
p3308
tp3309
Rp3310
ag3
(g7
S'\xf4<\xcf\xf3<\xcfR@'
p3311
tp3312
Rp3313
ag3
(g7
S'B{\t\xed%4P@'
p3314
tp3315
Rp3316
ag3
(g7
S'\xe48\x8e\xe38\x0eR@'
p3317
tp3318
Rp3319
ag3
(g7
S'\xc30\x0c\xc30\x0cS@'
p3320
tp3321
Rp3322
ag3
(g7
S'HM0\xde\xca>M@'
p3323
tp3324
Rp3325
ag3
(g7
S'\xc30\x0c\xc30\x0cS@'
p3326
tp3327
Rp3328
ag3
(g7
S'\xc7q\x1c\xc7q\\Q@'
p3329
tp3330
Rp3331
ag3
(g7
S'h/\xa1\xbd\x846S@'
p3332
tp3333
Rp3334
ag3
(g7
S'\x94%\xb0i?YR@'
p3335
tp3336
Rp3337
ag3
(g7
S'\xe8y\x9e\xe7y\x9eQ@'
p3338
tp3339
Rp3340
ag3
(g7
S'\x94%\xb0i?YR@'
p3341
tp3342
Rp3343
ag3
(g7
S'\x86a\x18\x86a\x18R@'
p3344
tp3345
Rp3346
ag3
(g7
S'\x17]t\xd1E\x97P@'
p3347
tp3348
Rp3349
ag3
(g7
S'a\xbc\x95}\x0e)R@'
p3350
tp3351
Rp3352
ag3
(g7
S'/\xa1\xbd\x84\xf6\xd2Q@'
p3353
tp3354
Rp3355
ag3
(g7
S'\xb7m\xdb\xb6m\xdbQ@'
p3356
tp3357
Rp3358
ag3
(g7
S'\x0c\xc30\x0c\xc30U@'
p3359
tp3360
Rp3361
ag3
(g7
S'5\x0fr\xd7\xcf\x16P@'
p3362
tp3363
Rp3364
ag3
(g7
S'z\x9e\xe7y\x9e\xe7P@'
p3365
tp3366
Rp3367
ag3
(g7
S'\x0c\xc30\x0c\xc30P@'
p3368
tp3369
Rp3370
ag3
(g7
S'\xec\xc4N\xec\xc4nT@'
p3371
tp3372
Rp3373
ag3
(g7
S'\x8a\x9d\xd8\x89\x9dxS@'
p3374
tp3375
Rp3376
ag3
(g7
S'\xa3\x8b.\xba\xe8"P@'
p3377
tp3378
Rp3379
ag3
(g7
S'#\nL:5\x0fS@'
p3380
tp3381
Rp3382
ag3
(g7
S'oe\x9fCj\x82P@'
p3383
tp3384
Rp3385
ag3
(g7
S'\x00\x00\x00\x00\x00PT@'
p3386
tp3387
Rp3388
ag3
(g7
S'1\x0c\xc30\x0c\xc3S@'
p3389
tp3390
Rp3391
ag3
(g7
S'\x00\x00\x00\x00\x00\xc0R@'
p3392
tp3393
Rp3394
ag3
(g7
S'\xdb\xb6m\xdb\xb6mP@'
p3395
tp3396
Rp3397
ag3
(g7
S'=\xcf\xf3<\xcf\xf3N@'
p3398
tp3399
Rp3400
ag3
(g7
S'\xc30\x0c\xc30\x0cS@'
p3401
tp3402
Rp3403
ag3
(g7
S'\x00\x00\x00\x00\x00\x00S@'
p3404
tp3405
Rp3406
ag3
(g7
S'\xdb\xb6m\xdb\xb6\xddS@'
p3407
tp3408
Rp3409
ag3
(g7
S'%I\x92$I\x92R@'
p3410
tp3411
Rp3412
ag3
(g7
S'\x13\x8c\xb7\xb2\xcf\xa1R@'
p3413
tp3414
Rp3415
ag3
(g7
S'I\x92$I\x92\xa4S@'
p3416
tp3417
Rp3418
ag3
(g7
S'\xdb\xb6m\xdb\xb6mP@'
p3419
tp3420
Rp3421
ag3
(g7
S'=\xcf\xf3<\xcf\xf3T@'
p3422
tp3423
Rp3424
ag3
(g7
S'\xf4<\xcf\xf3<\xcfR@'
p3425
tp3426
Rp3427
ag3
(g7
S'\x8a\x9d\xd8\x89\x9dXP@'
p3428
tp3429
Rp3430
ag3
(g7
S'y+\xfb\x1cR\x93S@'
p3431
tp3432
Rp3433
ag3
(g7
S"'vb'v\x82R@"
p3434
tp3435
Rp3436
ag3
(g7
S'\xb1\x13;\xb1\x13;S@'
p3437
tp3438
Rp3439
ag3
(g7
S'\x00\x00\x00\x00\x00\x80T@'
p3440
tp3441
Rp3442
ag3
(g7
S'O\xec\xc4N\xecDR@'
p3443
tp3444
Rp3445
ag3
(g7
S'\xf1\x8d(0\xe9\xd4P@'
p3446
tp3447
Rp3448
ag3
(g7
S'\x86a\x18\x86a\x18R@'
p3449
tp3450
Rp3451
ag3
(g7
S'\xd1E\x17]t\xd1P@'
p3452
tp3453
Rp3454
ag3
(g7
S'd!\x0bY\xc8BR@'
p3455
tp3456
Rp3457
ag3
(g7
S'\xbe\x84\xf6\x12\xdaKU@'
p3458
tp3459
Rp3460
ag3
(g7
S'z\x9e\xe7y\x9e\xe7O@'
p3461
tp3462
Rp3463
ag3
(g7
S'\xf4<\xcf\xf3<\xcfR@'
p3464
tp3465
Rp3466
ag3
(g7
S'|\x1aa\xb9\xa7QR@'
p3467
tp3468
Rp3469
ag3
(g7
S'\x00\x00\x00\x00\x00\xc0R@'
p3470
tp3471
Rp3472
ag3
(g7
S'\xdabe\xf8F\x14Q@'
p3473
tp3474
Rp3475
ag3
(g7
S'{\t\xed%\xb4\x97Q@'
p3476
tp3477
Rp3478
ag3
(g7
S'\x9c\xde\xf4\xa67\xbdP@'
p3479
tp3480
Rp3481
ag3
(g7
S'\xeaMoz\xd3\x9bQ@'
p3482
tp3483
Rp3484
ag3
(g7
S'\x00\x00\x00\x00\x00\x00T@'
p3485
tp3486
Rp3487
ag3
(g7
S'\xb7m\xdb\xb6m\xdbQ@'
p3488
tp3489
Rp3490
ag3
(g7
S'I\x92$I\x92\x14R@'
p3491
tp3492
Rp3493
ag3
(g7
S'/\xba\xe8\xa2\x8b.R@'
p3494
tp3495
Rp3496
ag3
(g7
S'oz\xd3\x9b\xde\xf4P@'
p3497
tp3498
Rp3499
ag3
(g7
S'\x18\x86a\x18\x86aQ@'
p3500
tp3501
Rp3502
ag3
(g7
S'%I\x92$I2S@'
p3503
tp3504
Rp3505
ag3
(g7
S'\x9e\xd8\x89\x9d\xd8\xe9T@'
p3506
tp3507
Rp3508
ag3
(g7
S'\xba\xe8\xa2\x8b.\xbaQ@'
p3509
tp3510
Rp3511
ag3
(g7
S'O\xec\xc4N\xecDR@'
p3512
tp3513
Rp3514
ag3
(g7
S'1\x0c\xc30\x0c\xc3S@'
p3515
tp3516
Rp3517
ag3
(g7
S"'vb'v\x82R@"
p3518
tp3519
Rp3520
ag3
(g7
S'\x9e\xd8\x89\x9d\xd8\xe9T@'
p3521
tp3522
Rp3523
ag3
(g7
S'\x00\x00\x00\x00\x00\xc0S@'
p3524
tp3525
Rp3526
ag3
(g7
S'\xe9\xa2\x8b.\xba\xe8T@'
p3527
tp3528
Rp3529
ag3
(g7
S'\xb1\x13;\xb1\x13;S@'
p3530
tp3531
Rp3532
ag3
(g7
S'R\x13\x8c\xb7\xb2\xcfS@'
p3533
tp3534
Rp3535
ag3
(g7
S'Q`\xd2\xa9y\x90R@'
p3536
tp3537
Rp3538
ag3
(g7
S'\xc5N\xec\xc4N\xacT@'
p3539
tp3540
Rp3541
ag3
(g7
S"b'vb'\xb6S@"
p3542
tp3543
Rp3544
ag3
(g7
S'\xf6\xb3\xc5\xca\xf0\x8dS@'
p3545
tp3546
Rp3547
ag3
(g7
S'\x96\xc0\xa6\xfdd\tS@'
p3548
tp3549
Rp3550
ag3
(g7
S'h/\xa1\xbd\x846S@'
p3551
tp3552
Rp3553
ag3
(g7
S'\xdb\xb6m\xdb\xb6mU@'
p3554
tp3555
Rp3556
ag3
(g7
S'\xdf\x88\x02\x93N\xcdS@'
p3557
tp3558
Rp3559
ag3
(g7
S'\xdf\xf4\xa67\xbd\xe9R@'
p3560
tp3561
Rp3562
ag3
(g7
S'\x14;\xb1\x13;\x11Q@'
p3563
tp3564
Rp3565
ag3
(g7
S'O#,\xf74BT@'
p3566
tp3567
Rp3568
ag3
(g7
S'\xab\xaa\xaa\xaa\xaa\xaaU@'
p3569
tp3570
Rp3571
ag3
(g7
S'\x00\x00\x00\x00\x00PT@'
p3572
tp3573
Rp3574
ag3
(g7
S'\xa1\xbd\x84\xf6\x12\x9aT@'
p3575
tp3576
Rp3577
ag3
(g7
S'\xa77\xbd\xe9MoT@'
p3578
tp3579
Rp3580
ag3
(g7
S'\xd1E\x17]tQS@'
p3581
tp3582
Rp3583
ag3
(g7
S'\x92$I\x92$IS@'
p3584
tp3585
Rp3586
ag3
(g7
S'b\x18\x86a\x18\x86S@'
p3587
tp3588
Rp3589
ag3
(g7
S'1\x0c\xc30\x0c\xc3S@'
p3590
tp3591
Rp3592
ag3
(g7
S'\x00\x00\x00\x00\x00\x00S@'
p3593
tp3594
Rp3595
ag3
(g7
S'n\xdb\xb6m\xdb\xb6T@'
p3596
tp3597
Rp3598
ag3
(g7
S'\xd1^B{\t\xadS@'
p3599
tp3600
Rp3601
ag3
(g7
S'\xc30\x0c\xc30\x0cS@'
p3602
tp3603
Rp3604
ag3
(g7
S'\x8a\x9d\xd8\x89\x9dxS@'
p3605
tp3606
Rp3607
ag3
(g7
S'n\xdb\xb6m\xdb\x16T@'
p3608
tp3609
Rp3610
ag3
(g7
S'\xd1E\x17]tQS@'
p3611
tp3612
Rp3613
ag3
(g7
S'r\x1c\xc7q\x1c\x87U@'
p3614
tp3615
Rp3616
ag3
(g7
S'\xab\xaa\xaa\xaa\xaa\xaaU@'
p3617
tp3618
Rp3619
ag3
(g7
S'\x13\x8c\xb7\xb2\xcf\xa1R@'
p3620
tp3621
Rp3622
ag3
(g7
S'\xcf\xf3<\xcf\xf3<T@'
p3623
tp3624
Rp3625
ag3
(g7
S'\x92$I\x92$\xf9R@'
p3626
tp3627
Rp3628
ag3
(g7
S'\x1c\xc7q\x1c\xc7qS@'
p3629
tp3630
Rp3631
ag3
(g7
S"vb'vb\x07R@"
p3632
tp3633
Rp3634
ag3
(g7
S'B\xf4\xf8.\x1cDS@'
p3635
tp3636
Rp3637
ag3
(g7
S'n\xdb\xb6m\xdb\x86R@'
p3638
tp3639
Rp3640
ag3
(g7
S'\x13\x8c\xb7\xb2\xcf\xa1R@'
p3641
tp3642
Rp3643
ag3
(g7
S'\xe8y\x9e\xe7y\x9eQ@'
p3644
tp3645
Rp3646
ag3
(g7
S'1\x0c\xc30\x0c\xc3S@'
p3647
tp3648
Rp3649
ag3
(g7
S'\x00\x00\x00\x00\x00@S@'
p3650
tp3651
Rp3652
ag3
(g7
S'\xb7m\xdb\xb6m\xdbQ@'
p3653
tp3654
Rp3655
ag3
(g7
S';\xb1\x13;\xb1\xf3S@'
p3656
tp3657
Rp3658
ag3
(g7
S'a\xbc\x95}\x0e)R@'
p3659
tp3660
Rp3661
ag3
(g7
S'\xcf\xf3<\xcf\xf3<T@'
p3662
tp3663
Rp3664
ag3
(g7
S'\x92$I\x92$\x19V@'
p3665
tp3666
Rp3667
ag3
(g7
S'UUUUUUR@'
p3668
tp3669
Rp3670
ag3
(g7
S']t\xd1E\x17]P@'
p3671
tp3672
Rp3673
ag3
(g7
S';\xb1\x13;\xb1\xf3S@'
p3674
tp3675
Rp3676
ag3
(g7
S'\x92$I\x92$\xf9R@'
p3677
tp3678
Rp3679
ag3
(g7
S'1\x0c\xc30\x0c\xc3S@'
p3680
tp3681
Rp3682
ag3
(g7
S'\xc8]?[\xac\x0cT@'
p3683
tp3684
Rp3685
ag3
(g7
S'\xb7m\xdb\xb6m\xdbQ@'
p3686
tp3687
Rp3688
ag3
(g7
S'UUUUUUR@'
p3689
tp3690
Rp3691
ag3
(g7
S'\x00\x00\x00\x00\x00\x00T@'
p3692
tp3693
Rp3694
ag3
(g7
S'\x86a\x18\x86a\x18R@'
p3695
tp3696
Rp3697
ag3
(g7
S'b\x18\x86a\x18\x86S@'
p3698
tp3699
Rp3700
ag3
(g7
S'\t\xcb=\x8d\xb0\x9cS@'
p3701
tp3702
Rp3703
ag3
(g7
S'V\x86oD\x81IU@'
p3704
tp3705
Rp3706
ag3
(g7
S'\xc30\x0c\xc30\x0cS@'
p3707
tp3708
Rp3709
ag3
(g7
S'F\x17]t\xd1\xc5S@'
p3710
tp3711
Rp3712
ag3
(g7
S'\x92$I\x92$IS@'
p3713
tp3714
Rp3715
ag3
(g7
S'h/\xa1\xbd\x846S@'
p3716
tp3717
Rp3718
ag3
(g7
S'\xab\xaa\xaa\xaa\xaa\xaaP@'
p3719
tp3720
Rp3721
ag3
(g7
S'\x14;\xb1\x13;1T@'
p3722
tp3723
Rp3724
ag3
(g7
S'\x00\x00\x00\x00\x00\x00T@'
p3725
tp3726
Rp3727
ag3
(g7
S'\xd0!5\xc1x+V@'
p3728
tp3729
Rp3730
ag3
(g7
S'd!\x0bY\xc8BR@'
p3731
tp3732
Rp3733
ag3
(g7
S'\xf4<\xcf\xf3<\xcfR@'
p3734
tp3735
Rp3736
ag3
(g7
S'\xec\xc4N\xec\xc4nT@'
p3737
tp3738
Rp3739
ag3
(g7
S'\xcf\xf3<\xcf\xf3<T@'
p3740
tp3741
Rp3742
ag3
(g7
S']t\xd1E\x17\xddR@'
p3743
tp3744
Rp3745
ag3
(g7
S'\xc30\x0c\xc30\x0cS@'
p3746
tp3747
Rp3748
ag3
(g7
S'1\x0c\xc30\x0c\xc3S@'
p3749
tp3750
Rp3751
ag3
(g7
S'\x86a\x18\x86a\x18R@'
p3752
tp3753
Rp3754
ag3
(g7
S'\xb4\x97\xd0^B\xfbR@'
p3755
tp3756
Rp3757
ag3
(g7
S'\xb12|#\nLT@'
p3758
tp3759
Rp3760
ag3
(g7
S'\xb7m\xdb\xb6m\xdbQ@'
p3761
tp3762
Rp3763
ag3
(g7
S'\xb4\x97\xd0^B\xfbR@'
p3764
tp3765
Rp3766
ag3
(g7
S'\x9fCj\x82\xf1VS@'
p3767
tp3768
Rp3769
ag3
(g7
S'\x00\x00\x00\x00\x00\xc0R@'
p3770
tp3771
Rp3772
ag3
(g7
S'\xba\xe8\xa2\x8b.:T@'
p3773
tp3774
Rp3775
ag3
(g7
S'\xb4\x97\xd0^B\xfbR@'
p3776
tp3777
Rp3778
ag3
(g7
S'1\x0c\xc30\x0c\xc3S@'
p3779
tp3780
Rp3781
ag3
(g7
S'\x13\x8c\xb7\xb2\xcf\xa1R@'
p3782
tp3783
Rp3784
ag3
(g7
S'V\x86oD\x81IU@'
p3785
tp3786
Rp3787
ag3
(g7
S'\xb4\x97\xd0^B\xfbR@'
p3788
tp3789
Rp3790
ag3
(g7
S'GX\xeei\x84eS@'
p3791
tp3792
Rp3793
ag3
(g7
S"vb'vb'U@"
p3794
tp3795
Rp3796
ag3
(g7
S'\x00\x00\x00\x00\x00@U@'
p3797
tp3798
Rp3799
ag3
(g7
S'\xcf\xf3<\xcf\xf3<T@'
p3800
tp3801
Rp3802
ag3
(g7
S'\xec\xc4N\xec\xc4nT@'
p3803
tp3804
Rp3805
ag3
(g7
S'\x9e\xe7y\x9e\xe7yT@'
p3806
tp3807
Rp3808
ag3
(g7
S'\xdaKh/\xa1\xfdU@'
p3809
tp3810
Rp3811
ag3
(g7
S'\xf6\xb3\xc5\xca\xf0\x8dS@'
p3812
tp3813
Rp3814
ag3
(g7
S'\x8a\x9d\xd8\x89\x9dxS@'
p3815
tp3816
Rp3817
ag3
(g7
S'\x13\x8c\xb7\xb2\xcf\xa1R@'
p3818
tp3819
Rp3820
ag3
(g7
S'\x9e\xe7y\x9e\xe7yT@'
p3821
tp3822
Rp3823
ag3
(g7
S'F*\xe6Vg\xa4T@'
p3824
tp3825
Rp3826
ag3
(g7
S'=\xcf\xf3<\xcf\xf3T@'
p3827
tp3828
Rp3829
ag3
(g7
S'\x9e\xd8\x89\x9d\xd8\xe9T@'
p3830
tp3831
Rp3832
ag3
(g7
S'\xcf\xf3<\xcf\xf3<T@'
p3833
tp3834
Rp3835
ag3
(g7
S'/\xba\xe8\xa2\x8b\xaeT@'
p3836
tp3837
Rp3838
ag3
(g7
S'\x9e\xe7y\x9e\xe7yT@'
p3839
tp3840
Rp3841
ag3
(g7
S't\xd1E\x17]tT@'
p3842
tp3843
Rp3844
ag3
(g7
S'\xcf\xf3<\xcf\xf3<T@'
p3845
tp3846
Rp3847
ag3
(g7
S'\xc6[\xd9\xe7\x90\x1aS@'
p3848
tp3849
Rp3850
ag3
(g7
S'z\x9e\xe7y\x9e\xe7U@'
p3851
tp3852
Rp3853
ag3
(g7
S'\x14;\xb1\x13;1T@'
p3854
tp3855
Rp3856
ag3
(g7
S'\xe9\xa2\x8b.\xba\xe8T@'
p3857
tp3858
Rp3859
ag3
(g7
S'n\xdb\xb6m\xdb\xb6T@'
p3860
tp3861
Rp3862
ag3
(g7
S'\x1c\xc7q\x1c\xc7qS@'
p3863
tp3864
Rp3865
ag3
(g7
S'\x00\x00\x00\x00\x00\x00T@'
p3866
tp3867
Rp3868
ag3
(g7
S'\xe9\xa2\x8b.\xba\xe8T@'
p3869
tp3870
Rp3871
ag3
(g7
S'\x0c\xc30\x0c\xc30U@'
p3872
tp3873
Rp3874
ag3
(g7
S'1\x0c\xc30\x0c\xc3S@'
p3875
tp3876
Rp3877
ag3
(g7
S'1\x0c\xc30\x0c\xc3S@'
p3878
tp3879
Rp3880
ag3
(g7
S'\x8d\xb0\xdc\xd3\x08\x0bT@'
p3881
tp3882
Rp3883
ag3
(g7
S'\xc8]?[\xac\x0cT@'
p3884
tp3885
Rp3886
ag3
(g7
S'z\x9e\xe7y\x9e\xe7U@'
p3887
tp3888
Rp3889
ag3
(g7
S'UUUUUUR@'
p3890
tp3891
Rp3892
ag3
(g7
S'\x85\xf6\x12\xdaK\xe8S@'
p3893
tp3894
Rp3895
ag3
(g7
S'\x92$I\x92$IS@'
p3896
tp3897
Rp3898
ag3
(g7
S'\xf4<\xcf\xf3<\xcfR@'
p3899
tp3900
Rp3901
ag3
(g7
S'\xec\xc4N\xec\xc4nT@'
p3902
tp3903
Rp3904
ag3
(g7
S'\xb1\x13;\xb1\x13;S@'
p3905
tp3906
Rp3907
ag3
(g7
S'=\xcf\xf3<\xcf\xf3T@'
p3908
tp3909
Rp3910
ag3
(g7
S')0\xe9\xd4<\xc8U@'
p3911
tp3912
Rp3913
ag3
(g7
S'\xdaKh/\xa1\xfdU@'
p3914
tp3915
Rp3916
ag3
(g7
S'\xba\xe8\xa2\x8b.\xbaQ@'
p3917
tp3918
Rp3919
ag3
(g7
S'\xcf\xf3<\xcf\xf3<T@'
p3920
tp3921
Rp3922
ag3
(g7
S'\xb8\xb2\xcf!5\xc1T@'
p3923
tp3924
Rp3925
ag3
(g7
S'%I\x92$I2S@'
p3926
tp3927
Rp3928
ag3
(g7
S'\xab\xaa\xaa\xaa\xaa\xaaU@'
p3929
tp3930
Rp3931
ag3
(g7
S'\x9e\xd8\x89\x9d\xd8\xe9T@'
p3932
tp3933
Rp3934
ag3
(g7
S'\xb8\xb2\xcf!5\xc1T@'
p3935
tp3936
Rp3937
ag3
(g7
S'\xdf\xf4\xa67\xbd\xe9R@'
p3938
tp3939
Rp3940
ag3
(g7
S'UUUUUUR@'
p3941
tp3942
Rp3943
ag3
(g7
S'\t\xed%\xb4\x97\x10U@'
p3944
tp3945
Rp3946
ag3
(g7
S'\xcf\xf3<\xcf\xf3<T@'
p3947
tp3948
Rp3949
ag3
(g7
S'z\xd3\x9b\xde\xf4\xa6T@'
p3950
tp3951
Rp3952
ag3
(g7
S'b\x18\x86a\x18\x86S@'
p3953
tp3954
Rp3955
ag3
(g7
S'\xc5N\xec\xc4N\xacT@'
p3956
tp3957
Rp3958
ag3
(g7
S'\xc6[\xd9\xe7\x90\x1aS@'
p3959
tp3960
Rp3961
ag3
(g7
S'\x17]t\xd1E\x97U@'
p3962
tp3963
Rp3964
ag3
(g7
S'\xf4<\xcf\xf3<\xcfR@'
p3965
tp3966
Rp3967
ag3
(g7
S'\xa1\xbd\x84\xf6\x12\x9aT@'
p3968
tp3969
Rp3970
ag3
(g7
S'\x05\xe3\xad\xecsHT@'
p3971
tp3972
Rp3973
ag3
(g7
S'\x92$I\x92$\x89T@'
p3974
tp3975
Rp3976
ag3
(g7
S'O\xec\xc4N\xecdU@'
p3977
tp3978
Rp3979
ag3
(g7
S'\x00\x00\x00\x00\x00\xe0U@'
p3980
tp3981
Rp3982
ag3
(g7
S'n\xdb\xb6m\xdb\xb6T@'
p3983
tp3984
Rp3985
ag3
(g7
S"vb'vb'U@"
p3986
tp3987
Rp3988
ag3
(g7
S'\x00\x00\x00\x00\x00\x00S@'
p3989
tp3990
Rp3991
ag3
(g7
S'\xdb\xb6m\xdb\xb6\xddS@'
p3992
tp3993
Rp3994
ag3
(g7
S'\xb12|#\nLT@'
p3995
tp3996
Rp3997
ag3
(g7
S'1\x0c\xc30\x0c\xc3S@'
p3998
tp3999
Rp4000
ag3
(g7
S'=\xcf\xf3<\xcf\xf3T@'
p4001
tp4002
Rp4003
ag3
(g7
S'\x00\x00\x00\x00\x00\x00T@'
p4004
tp4005
Rp4006
ag3
(g7
S'\x82\xf1V\xf69\xa4V@'
p4007
tp4008
Rp4009
ag3
(g7
S'\xdb\xb6m\xdb\xb6\xddS@'
p4010
tp4011
Rp4012
ag3
(g7
S'I\x92$I\x924U@'
p4013
tp4014
Rp4015
ag3
(g7
S'\xcf\xf3<\xcf\xf3<T@'
p4016
tp4017
Rp4018
ag3
(g7
S'/\xba\xe8\xa2\x8b\xaeT@'
p4019
tp4020
Rp4021
ag3
(g7
S'\xcf\xf3<\xcf\xf3<T@'
p4022
tp4023
Rp4024
ag3
(g7
S'\xa1\xbd\x84\xf6\x12\x9aT@'
p4025
tp4026
Rp4027
ag3
(g7
S'h\x8b\x95\xe1\x1bQR@'
p4028
tp4029
Rp4030
ag3
(g7
S'\x86,d!\x0bYS@'
p4031
tp4032
Rp4033
ag3
(g7
S'%I\x92$I2S@'
p4034
tp4035
Rp4036
ag3
(g7
S'\x1c\xc7q\x1c\xc7qS@'
p4037
tp4038
Rp4039
ag3
(g7
S'I\x92$I\x92\xa4S@'
p4040
tp4041
Rp4042
ag3
(g7
S'K`\xd3~\xb2\x04V@'
p4043
tp4044
Rp4045
ag3
(g7
S'O\xec\xc4N\xecdU@'
p4046
tp4047
Rp4048
ag3
(g7
S'z\xd3\x9b\xde\xf4\xa6T@'
p4049
tp4050
Rp4051
ag3
(g7
S'\xdb\xb6m\xdb\xb6mU@'
p4052
tp4053
Rp4054
ag3
(g7
S'\t\xed%\xb4\x97\x10U@'
p4055
tp4056
Rp4057
ag3
(g7
S'\xba\xe8\xa2\x8b.\xbaV@'
p4058
tp4059
Rp4060
ag3
(g7
S'j\x82\xf1V\xf69U@'
p4061
tp4062
Rp4063
ag3
(g7
S'z\x9e\xe7y\x9e\xe7U@'
p4064
tp4065
Rp4066
ag3
(g7
S'\x92$I\x92$\x19V@'
p4067
tp4068
Rp4069
ag3
(g7
S'I\xc5\xdc\xea\x8cTU@'
p4070
tp4071
Rp4072
ag3
(g7
S'\xdb\xb6m\xdb\xb6mU@'
p4073
tp4074
Rp4075
ag3
(g7
S'\xd0!5\xc1x+V@'
p4076
tp4077
Rp4078
ag3
(g7
S'\x00\x00\x00\x00\x00PT@'
p4079
tp4080
Rp4081
ag3
(g7
S'\xdb\xb6m\xdb\xb6mU@'
p4082
tp4083
Rp4084
ag3
(g7
S'\x00\x00\x00\x00\x00\xc0T@'
p4085
tp4086
Rp4087
ag3
(g7
S'\x8c.\xba\xe8\xa2\x0bV@'
p4088
tp4089
Rp4090
ag3
(g7
S"vb'vb'U@"
p4091
tp4092
Rp4093
ag3
(g7
S'9\x8e\xe38\x8e#T@'
p4094
tp4095
Rp4096
ag3
(g7
S'\x84\xdc\xf5\xb3\xc5\xcaT@'
p4097
tp4098
Rp4099
ag3
(g7
S'b\x18\x86a\x18\x86S@'
p4100
tp4101
Rp4102
ag3
(g7
S'\x00\x00\x00\x00\x00\xc0U@'
p4103
tp4104
Rp4105
ag3
(g7
S'\xc5N\xec\xc4N\xacT@'
p4106
tp4107
Rp4108
ag3
(g7
S'\x8a\x9d\xd8\x89\x9dxS@'
p4109
tp4110
Rp4111
ag3
(g7
S'\xec\xc4N\xec\xc4nT@'
p4112
tp4113
Rp4114
ag3
(g7
S'UUUUU\xd5T@'
p4115
tp4116
Rp4117
ag3
(g7
S'\xdb\xb6m\xdb\xb6\xddS@'
p4118
tp4119
Rp4120
ag3
(g7
S'\xb1\x13;\xb1\x13;S@'
p4121
tp4122
Rp4123
ag3
(g7
S'n\xdb\xb6m\xdb\xb6T@'
p4124
tp4125
Rp4126
ag3
(g7
S';\xb1\x13;\xb1\xf3S@'
p4127
tp4128
Rp4129
ag3
(g7
S'\xab\xaa\xaa\xaa\xaa\xaaU@'
p4130
tp4131
Rp4132
ag3
(g7
S'\x17]t\xd1E\x97U@'
p4133
tp4134
Rp4135
ag3
(g7
S'\xdaKh/\xa1\xfdU@'
p4136
tp4137
Rp4138
ag3
(g7
S'\xf5\xa67\xbd\xe9MU@'
p4139
tp4140
Rp4141
ag3
(g7
S'\xdb\xb6m\xdb\xb6mU@'
p4142
tp4143
Rp4144
ag3
(g7
S'\xba\xe8\xa2\x8b.:T@'
p4145
tp4146
Rp4147
ag3
(g7
S'\x00\x00\x00\x00\x00\xc0T@'
p4148
tp4149
Rp4150
ag3
(g7
S'm\xb12|#\nU@'
p4151
tp4152
Rp4153
ag3
(g7
S'I\x92$I\x92$V@'
p4154
tp4155
Rp4156
ag3
(g7
S'\xdb\xb6m\xdb\xb6mU@'
p4157
tp4158
Rp4159
ag3
(g7
S"'vb'v\xa2U@"
p4160
tp4161
Rp4162
ag3
(g7
S'b\x18\x86a\x18\x86S@'
p4163
tp4164
Rp4165
ag3
(g7
S'O\xec\xc4N\xecdU@'
p4166
tp4167
Rp4168
ag3
(g7
S"vb'vb'U@"
p4169
tp4170
Rp4171
ag3
(g7
S'V\x86oD\x81IU@'
p4172
tp4173
Rp4174
ag3
(g7
S'\t\xed%\xb4\x97\x10U@'
p4175
tp4176
Rp4177
ag3
(g7
S'Dj\x82\xf1VvU@'
p4178
tp4179
Rp4180
ag3
(g7
S'\x0c\xc30\x0c\xc30U@'
p4181
tp4182
Rp4183
ag3
(g7
S'=\xcf\xf3<\xcf\xf3T@'
p4184
tp4185
Rp4186
ag3
(g7
S'\xcf\xf3<\xcf\xf3<T@'
p4187
tp4188
Rp4189
ag3
(g7
S'\x0c\xc30\x0c\xc30U@'
p4190
tp4191
Rp4192
ag3
(g7
S'1\x0c\xc30\x0c\xc3S@'
p4193
tp4194
Rp4195
ag3
(g7
S'\xab\xaa\xaa\xaa\xaa\xaaU@'
p4196
tp4197
Rp4198
ag3
(g7
S'Dj\x82\xf1VvU@'
p4199
tp4200
Rp4201
ag3
(g7
S'C\x16\xb2\x90\x85,V@'
p4202
tp4203
Rp4204
ag3
(g7
S'\x0c\xc30\x0c\xc30U@'
p4205
tp4206
Rp4207
ag3
(g7
S'\x9fFX\xeei\xc4U@'
p4208
tp4209
Rp4210
ag3
(g7
S'\xba\xe8\xa2\x8b.:T@'
p4211
tp4212
Rp4213
ag3
(g7
S'\xcf\xf3<\xcf\xf3<T@'
p4214
tp4215
Rp4216
ag3
(g7
S'\xb12|#\nLT@'
p4217
tp4218
Rp4219
ag3
(g7
S'1\x0c\xc30\x0c\xc3S@'
p4220
tp4221
Rp4222
ag3
(g7
S'\xdb\xb6m\xdb\xb6mU@'
p4223
tp4224
Rp4225
ag3
(g7
S'\x0c\xc30\x0c\xc30U@'
p4226
tp4227
Rp4228
ag3
(g7
S'9\x8e\xe38\x8e#T@'
p4229
tp4230
Rp4231
ag3
(g7
S'\xb8\xb2\xcf!5\xc1T@'
p4232
tp4233
Rp4234
ag3
(g7
S'\xcf\xf3<\xcf\xf3<T@'
p4235
tp4236
Rp4237
ag3
(g7
S'\x9e\xe7y\x9e\xe7yT@'
p4238
tp4239
Rp4240
ag3
(g7
S'\x9e\xe7y\x9e\xe7yT@'
p4241
tp4242
Rp4243
ag3
(g7
S'\x92$I\x92$\xf9R@'
p4244
tp4245
Rp4246
ag3
(g7
S'\x00\x00\x00\x00\x00\xe0U@'
p4247
tp4248
Rp4249
ag3
(g7
S'\xba\xe8\xa2\x8b.:T@'
p4250
tp4251
Rp4252
ag3
(g7
S'\x96\xc0\xa6\xfdd\tS@'
p4253
tp4254
Rp4255
ag3
(g7
S'\xc30\x0c\xc30\x0cS@'
p4256
tp4257
Rp4258
ag3
(g7
S"vb'vb'U@"
p4259
tp4260
Rp4261
ag3
(g7
S'1\x0c\xc30\x0c\xc3S@'
p4262
tp4263
Rp4264
ag3
(g7
S'\xd4\x08\xcb=\x8d\xb0T@'
p4265
tp4266
Rp4267
ag3
(g7
S'\x0c\xc30\x0c\xc30U@'
p4268
tp4269
Rp4270
ag3
(g7
S'\xab\xaa\xaa\xaa\xaa\xaaU@'
p4271
tp4272
Rp4273
ag3
(g7
S'Dj\x82\xf1VvU@'
p4274
tp4275
Rp4276
ag3
(g7
S'!\x0bY\xc8B\x16U@'
p4277
tp4278
Rp4279
ag3
(g7
S'%I\x92$I\xc2T@'
p4280
tp4281
Rp4282
ag3
(g7
S'\xb7m\xdb\xb6m\xfbT@'
p4283
tp4284
Rp4285
ag3
(g7
S'\x92$I\x92$IS@'
p4286
tp4287
Rp4288
ag3
(g7
S'\xab\xaa\xaa\xaa\xaa\xaaU@'
p4289
tp4290
Rp4291
ag3
(g7
S'\xc8]?[\xac\x0cT@'
p4292
tp4293
Rp4294
ag3
(g7
S'UUUUU\xd5T@'
p4295
tp4296
Rp4297
ag3
(g7
S"vb'vb'U@"
p4298
tp4299
Rp4300
ag3
(g7
S'\xde\xca>\x87\xd4\x84T@'
p4301
tp4302
Rp4303
ag3
(g7
S'-d!\x0bY\xc8S@'
p4304
tp4305
Rp4306
ag3
(g7
S'B{\t\xed%tV@'
p4307
tp4308
Rp4309
ag3
(g7
S'\x84\xdc\xf5\xb3\xc5\xcaT@'
p4310
tp4311
Rp4312
ag3
(g7
S'\xbe\x84\xf6\x12\xdaKU@'
p4313
tp4314
Rp4315
ag3
(g7
S'\xa3\x8b.\xba\xe8"U@'
p4316
tp4317
Rp4318
ag3
(g7
S'\x00\x00\x00\x00\x00\x80W@'
p4319
tp4320
Rp4321
ag3
(g7
S'a\xb9\xa7\x11\x96\xfbU@'
p4322
tp4323
Rp4324
ag3
(g7
S'\x00\x00\x00\x00\x00\xe0U@'
p4325
tp4326
Rp4327
ag3
(g7
S'z\x9e\xe7y\x9e\xe7U@'
p4328
tp4329
Rp4330
ag3
(g7
S'\x12\x05&\x9d\x9a\x07V@'
p4331
tp4332
Rp4333
ag3
(g7
S'\xa0,\x81M\xfb\xc9U@'
p4334
tp4335
Rp4336
ag3
(g7
S'\xb1\x13;\xb1\x13[V@'
p4337
tp4338
Rp4339
ag3
(g7
S'n\xdb\xb6m\xdb\xb6T@'
p4340
tp4341
Rp4342
ag3
(g7
S'\xba\xe8\xa2\x8b.\xbaV@'
p4343
tp4344
Rp4345
ag3
(g7
S'n\xdb\xb6m\xdb\xb6T@'
p4346
tp4347
Rp4348
ag3
(g7
S'C\x16\xb2\x90\x85,V@'
p4349
tp4350
Rp4351
ag3
(g7
S'\x86a\x18\x86a\x18W@'
p4352
tp4353
Rp4354
ag3
(g7
S'\x17]t\xd1E\x97U@'
p4355
tp4356
Rp4357
ag3
(g7
S"vb'vb'U@"
p4358
tp4359
Rp4360
ag3
(g7
S"b'vb'\xb6S@"
p4361
tp4362
Rp4363
ag3
(g7
S'?[\xac\x0c\xdf\x88U@'
p4364
tp4365
Rp4366
ag3
(g7
S'\x17]t\xd1E\x97U@'
p4367
tp4368
Rp4369
ag3
(g7
S'\x00\x00\x00\x00\x00\xe0U@'
p4370
tp4371
Rp4372
ag3
(g7
S'\xb1\x13;\xb1\x13[V@'
p4373
tp4374
Rp4375
ag3
(g7
S'\xe8y\x9e\xe7y\x9eV@'
p4376
tp4377
Rp4378
ag3
(g7
S'\xf0\xc2A\xf4\xf8.T@'
p4379
tp4380
Rp4381
ag3
(g7
S'\xb7m\xdb\xb6m\xfbT@'
p4382
tp4383
Rp4384
ag3
(g7
S'_B{\t\xed%W@'
p4385
tp4386
Rp4387
ag3
(g7
S'\x86a\x18\x86a\x18W@'
p4388
tp4389
Rp4390
ag3
(g7
S'\xa3\x8b.\xba\xe8\xa2W@'
p4391
tp4392
Rp4393
ag3
(g7
S'\x91\x9a`\xbc\x95\xfdT@'
p4394
tp4395
Rp4396
ag3
(g7
S'\xdb\xb6m\xdb\xb6mU@'
p4397
tp4398
Rp4399
ag3
(g7
S'\xab\xaa\xaa\xaa\xaa\xaaU@'
p4400
tp4401
Rp4402
ag3
(g7
S'UUUUU\xd5T@'
p4403
tp4404
Rp4405
ag3
(g7
S'z\x9e\xe7y\x9e\xe7U@'
p4406
tp4407
Rp4408
ag3
(g7
S'B{\t\xed%tV@'
p4409
tp4410
Rp4411
ag3
(g7
S'I\x92$I\x92$V@'
p4412
tp4413
Rp4414
ag3
(g7
S'z\x9e\xe7y\x9e\xe7U@'
p4415
tp4416
Rp4417
ag3
(g7
S'n\xdb\xb6m\xdb\xa6U@'
p4418
tp4419
Rp4420
ag3
(g7
S'\x00\x00\x00\x00\x00\xe0U@'
p4421
tp4422
Rp4423
ag3
(g7
S'\x9e\xe7y\x9e\xe7yT@'
p4424
tp4425
Rp4426
ag3
(g7
S'\xb8\xb2\xcf!5\xc1T@'
p4427
tp4428
Rp4429
ag3
(g7
S'&\xb4\x97\xd0^\xc2U@'
p4430
tp4431
Rp4432
ag3
(g7
S'\xcf\xf3<\xcf\xf3<T@'
p4433
tp4434
Rp4435
ag3
(g7
S'\xcf\xf3<\xcf\xf3<T@'
p4436
tp4437
Rp4438
ag3
(g7
S'\x91\x9a`\xbc\x95\xfdT@'
p4439
tp4440
Rp4441
ag3
(g7
S'\xc30\x0c\xc30\x0cS@'
p4442
tp4443
Rp4444
ag3
(g7
S'B{\t\xed%tV@'
p4445
tp4446
Rp4447
ag3
(g7
S'z\x9e\xe7y\x9e\xe7U@'
p4448
tp4449
Rp4450
ag3
(g7
S"'vb'v\xa2U@"
p4451
tp4452
Rp4453
ag3
(g7
S'UUUUUUW@'
p4454
tp4455
Rp4456
ag3
(g7
S'&\xb4\x97\xd0^\xc2U@'
p4457
tp4458
Rp4459
ag3
(g7
S'\x00\x00\x00\x00\x00@T@'
p4460
tp4461
Rp4462
ag3
(g7
S'\x9e\xe7y\x9e\xe7yT@'
p4463
tp4464
Rp4465
ag3
(g7
S'\xb7m\xdb\xb6m\xfbT@'
p4466
tp4467
Rp4468
ag3
(g7
S'\x00\x00\x00\x00\x00\xe0U@'
p4469
tp4470
Rp4471
ag3
(g7
S'=\xcf\xf3<\xcf\xf3T@'
p4472
tp4473
Rp4474
ag3
(g7
S'1\x0c\xc30\x0c\xc3S@'
p4475
tp4476
Rp4477
ag3
(g7
S'\x9e\xe7y\x9e\xe7yT@'
p4478
tp4479
Rp4480
ag3
(g7
S'\x00\x00\x00\x00\x00\x00T@'
p4481
tp4482
Rp4483
ag3
(g7
S'\xf5\xa67\xbd\xe9MU@'
p4484
tp4485
Rp4486
ag3
(g7
S'\xb6X\x19\xbe\x11\x05W@'
p4487
tp4488
Rp4489
ag3
(g7
S'\xb8\xb2\xcf!5\xc1T@'
p4490
tp4491
Rp4492
ag3
(g7
S'+\xfb\x1cR\x13\x0cT@'
p4493
tp4494
Rp4495
ag3
(g7
S'\xe8y\x9e\xe7y\x9eV@'
p4496
tp4497
Rp4498
ag3
(g7
S'\x12\x05&\x9d\x9a\x07V@'
p4499
tp4500
Rp4501
ag3
(g7
S'\xb7m\xdb\xb6m\xfbT@'
p4502
tp4503
Rp4504
ag3
(g7
S'oz\xd3\x9b\xde\xf4U@'
p4505
tp4506
Rp4507
ag3
(g7
S'\x8a\x9d\xd8\x89\x9d\x98V@'
p4508
tp4509
Rp4510
ag3
(g7
S'I\x92$I\x92$V@'
p4511
tp4512
Rp4513
ag3
(g7
S'\xa1\xbd\x84\xf6\x12\x9aT@'
p4514
tp4515
Rp4516
ag3
(g7
S'/\xba\xe8\xa2\x8b\xaeT@'
p4517
tp4518
Rp4519
ag3
(g7
S'\x92$I\x92$\x19V@'
p4520
tp4521
Rp4522
ag3
(g7
S'\xa3\x8b.\xba\xe8"U@'
p4523
tp4524
Rp4525
ag3
(g7
S'\x96{\x1aa\xb9\xe7T@'
p4526
tp4527
Rp4528
ag3
(g7
S'\xb7m\xdb\xb6m\xfbT@'
p4529
tp4530
Rp4531
ag3
(g7
S'?[\xac\x0c\xdf\x88U@'
p4532
tp4533
Rp4534
ag3
(g7
S'\xed%\xb4\x97\xd0^T@'
p4535
tp4536
Rp4537
ag3
(g7
S'\x92$I\x92$\x89T@'
p4538
tp4539
Rp4540
ag3
(g7
S"b'vb'\xb6S@"
p4541
tp4542
Rp4543
ag3
(g7
S't\xd1E\x17]tT@'
p4544
tp4545
Rp4546
ag3
(g7
S'UUUUU\xd5T@'
p4547
tp4548
Rp4549
ag3
(g7
S'\xde\xca>\x87\xd4\x84T@'
p4550
tp4551
Rp4552
ag3
(g7
S"b'vb'\xb6S@"
p4553
tp4554
Rp4555
ag3
(g7
S'\x00\x00\x00\x00\x00\xc0T@'
p4556
tp4557
Rp4558
ag3
(g7
S'Y\xc8B\x16\xb2\x90S@'
p4559
tp4560
Rp4561
ag3
(g7
S'\xedsHM0\xdeR@'
p4562
tp4563
Rp4564
ag3
(g7
S'\x86a\x18\x86a\x18W@'
p4565
tp4566
Rp4567
ag3
(g7
S'=\xcf\xf3<\xcf\xf3T@'
p4568
tp4569
Rp4570
ag3
(g7
S'\x12\x05&\x9d\x9a\x07V@'
p4571
tp4572
Rp4573
ag3
(g7
S'n\xdb\xb6m\xdb\xb6T@'
p4574
tp4575
Rp4576
ag3
(g7
S'\x00\x00\x00\x00\x00PT@'
p4577
tp4578
Rp4579
ag3
(g7
S'z\x9e\xe7y\x9e\xe7U@'
p4580
tp4581
Rp4582
ag3
(g7
S'I\x92$I\x92$V@'
p4583
tp4584
Rp4585
ag3
(g7
S'\xd9\x89\x9d\xd8\x89\x1dV@'
p4586
tp4587
Rp4588
ag3
(g7
S'a\xb9\xa7\x11\x96\xfbU@'
p4589
tp4590
Rp4591
ag3
(g7
S'r\xd7\xcf\x16+\xc3W@'
p4592
tp4593
Rp4594
ag3
(g7
S'\x9e\xd8\x89\x9d\xd8\xe9T@'
p4595
tp4596
Rp4597
ag3
(g7
S'\xdb\xb6m\xdb\xb6mU@'
p4598
tp4599
Rp4600
ag3
(g7
S'\xba\xe8\xa2\x8b.\xbaV@'
p4601
tp4602
Rp4603
ag3
(g7
S'\xa4bnuF*W@'
p4604
tp4605
Rp4606
ag3
(g7
S'Dj\x82\xf1VvU@'
p4607
tp4608
Rp4609
ag3
(g7
S'\x9d\x91\x8a\xb9\xd5\x19U@'
p4610
tp4611
Rp4612
ag3
(g7
S'\xab\xaa\xaa\xaa\xaa\xaaU@'
p4613
tp4614
Rp4615
ag3
(g7
S"'vb'v\xa2U@"
p4616
tp4617
Rp4618
ag3
(g7
S'z\x9e\xe7y\x9e\xe7U@'
p4619
tp4620
Rp4621
ag3
(g7
S'\xb6X\x19\xbe\x11\x05W@'
p4622
tp4623
Rp4624
ag3
(g7
S'j\x82\xf1V\xf69U@'
p4625
tp4626
Rp4627
ag3
(g7
S'\x86a\x18\x86a\x18W@'
p4628
tp4629
Rp4630
ag3
(g7
S'\x1dR\x13\x8c\xb7\xb2U@'
p4631
tp4632
Rp4633
ag3
(g7
S'\xd1E\x17]t\xd1U@'
p4634
tp4635
Rp4636
ag3
(g7
S'\xe8y\x9e\xe7y\x9eV@'
p4637
tp4638
Rp4639
ag3
(g7
S'\x8c.\xba\xe8\xa2\x0bV@'
p4640
tp4641
Rp4642
ag3
(g7
S'\xd1E\x17]t\xd1U@'
p4643
tp4644
Rp4645
ag3
(g7
S'\xcd\x83\xdc\xf5\xb3\xc5V@'
p4646
tp4647
Rp4648
ag3
(g7
S'\xeaMoz\xd3\x9bV@'
p4649
tp4650
Rp4651
ag3
(g7
S'\xdb\xb6m\xdb\xb6\xfdV@'
p4652
tp4653
Rp4654
ag3
(g7
S'\x00\x00\x00\x00\x00\xc0U@'
p4655
tp4656
Rp4657
ag3
(g7
S'\xc8B\x16\xb2\x90\x85U@'
p4658
tp4659
Rp4660
ag3
(g7
S'\xf7\x12\xdaKh\xafV@'
p4661
tp4662
Rp4663
ag3
(g7
S'\x9e\xd8\x89\x9d\xd8\xe9T@'
p4664
tp4665
Rp4666
ag3
(g7
S'\t\xed%\xb4\x97\x10U@'
p4667
tp4668
Rp4669
ag3
(g7
S'\x18\x86a\x18\x86aV@'
p4670
tp4671
Rp4672
ag3
(g7
S'\x00\x00\x00\x00\x00\x80V@'
p4673
tp4674
Rp4675
ag3
(g7
S'\xd9\x89\x9d\xd8\x89\x1dV@'
p4676
tp4677
Rp4678
ag3
(g7
S'\x18\x86a\x18\x86aV@'
p4679
tp4680
Rp4681
ag3
(g7
S'\xfb\xd9be\xf8FV@'
p4682
tp4683
Rp4684
ag3
(g7
S'\x18\x86a\x18\x86aV@'
p4685
tp4686
Rp4687
ag3
(g7
S'r\x1c\xc7q\x1c\x87U@'
p4688
tp4689
Rp4690
ag3
(g7
S'&\xb4\x97\xd0^\xc2U@'
p4691
tp4692
Rp4693
ag3
(g7
S'\x8a\x9d\xd8\x89\x9d\x98V@'
p4694
tp4695
Rp4696
ag3
(g7
S'\x92$I\x92$\x19V@'
p4697
tp4698
Rp4699
ag3
(g7
S'\x0c\xc30\x0c\xc30U@'
p4700
tp4701
Rp4702
ag3
(g7
S'j\x82\xf1V\xf69U@'
p4703
tp4704
Rp4705
ag3
(g7
S'F\x17]t\xd1EV@'
p4706
tp4707
Rp4708
ag3
(g7
S'I\x92$I\x92$V@'
p4709
tp4710
Rp4711
ag3
(g7
S'\x00\x00\x00\x00\x00\x80U@'
p4712
tp4713
Rp4714
ag3
(g7
S'R\x13\x8c\xb7\xb2\xcfS@'
p4715
tp4716
Rp4717
ag3
(g7
S'\xdb\xb6m\xdb\xb6mU@'
p4718
tp4719
Rp4720
ag3
(g7
S'\x00\x00\x00\x00\x00\xe0U@'
p4721
tp4722
Rp4723
ag3
(g7
S'\x0c\xc30\x0c\xc30U@'
p4724
tp4725
Rp4726
ag3
(g7
S'\x9fFX\xeei\xc4U@'
p4727
tp4728
Rp4729
ag3
(g7
S'=\xcf\xf3<\xcf\xf3T@'
p4730
tp4731
Rp4732
ag3
(g7
S'\x00\x00\x00\x00\x00@V@'
p4733
tp4734
Rp4735
ag3
(g7
S'\x0c\xc30\x0c\xc30U@'
p4736
tp4737
Rp4738
ag3
(g7
S'I\x92$I\x92$V@'
p4739
tp4740
Rp4741
ag3
(g7
S'\xb7m\xdb\xb6m\xdbV@'
p4742
tp4743
Rp4744
ag3
(g7
S'/\xba\xe8\xa2\x8b\xaeT@'
p4745
tp4746
Rp4747
ag3
(g7
S'\xdb\xb6m\xdb\xb6\xddS@'
p4748
tp4749
Rp4750
ag3
(g7
S'\x9e\xe7y\x9e\xe7yT@'
p4751
tp4752
Rp4753
ag3
(g7
S'\xb1\x13;\xb1\x13[V@'
p4754
tp4755
Rp4756
ag3
(g7
S'%I\x92$I\xc2T@'
p4757
tp4758
Rp4759
ag3
(g7
S'\xe8y\x9e\xe7y\x9eV@'
p4760
tp4761
Rp4762
ag3
(g7
S'\xcd\x83\xdc\xf5\xb3\xc5V@'
p4763
tp4764
Rp4765
ag3
(g7
S'=\xcf\xf3<\xcf\xf3T@'
p4766
tp4767
Rp4768
ag3
(g7
S'\xd0!5\xc1x+V@'
p4769
tp4770
Rp4771
ag3
(g7
S'I\x92$I\x92$V@'
p4772
tp4773
Rp4774
ag3
(g7
S'\x92$I\x92$\x19V@'
p4775
tp4776
Rp4777
ag3
(g7
S'n\xdb\xb6m\xdb\xb6T@'
p4778
tp4779
Rp4780
ag3
(g7
S')0\xe9\xd4<\xc8U@'
p4781
tp4782
Rp4783
ag3
(g7
S'\xc8B\x16\xb2\x90\x85U@'
p4784
tp4785
Rp4786
ag3
(g7
S'O\xec\xc4N\xecdU@'
p4787
tp4788
Rp4789
ag3
(g7
S'\xcf\xf3<\xcf\xf3<T@'
p4790
tp4791
Rp4792
ag3
(g7
S"vb'vb'U@"
p4793
tp4794
Rp4795
ag3
(g7
S'\xdaKh/\xa1\xfdU@'
p4796
tp4797
Rp4798
ag3
(g7
S'\xf7\x12\xdaKh\xafV@'
p4799
tp4800
Rp4801
ag3
(g7
S'\xab\xaa\xaa\xaa\xaa\xaaU@'
p4802
tp4803
Rp4804
ag3
(g7
S'I\x92$I\x92$V@'
p4805
tp4806
Rp4807
ag3
(g7
S'z\x9e\xe7y\x9e\xe7U@'
p4808
tp4809
Rp4810
ag3
(g7
S'\x00\x00\x00\x00\x00\xe0U@'
p4811
tp4812
Rp4813
ag3
(g7
S'\xe8y\x9e\xe7y\x9eV@'
p4814
tp4815
Rp4816
ag3
(g7
S'I\x92$I\x92$V@'
p4817
tp4818
Rp4819
ag3
(g7
S'&\xb4\x97\xd0^\xc2U@'
p4820
tp4821
Rp4822
ag3
(g7
S'\xab\xaa\xaa\xaa\xaa\xeaV@'
p4823
tp4824
Rp4825
ag3
(g7
S'\xcf\xf3<\xcf\xf3<T@'
p4826
tp4827
Rp4828
ag3
(g7
S'O\xec\xc4N\xecdU@'
p4829
tp4830
Rp4831
ag3
(g7
S'%I\x92$IRV@'
p4832
tp4833
Rp4834
ag3
(g7
S'z\x9e\xe7y\x9e\xe7U@'
p4835
tp4836
Rp4837
ag3
(g7
S'\xb8\xb2\xcf!5\xc1T@'
p4838
tp4839
Rp4840
ag3
(g7
S'B{\t\xed%tV@'
p4841
tp4842
Rp4843
ag3
(g7
S'oz\xd3\x9b\xde\xf4U@'
p4844
tp4845
Rp4846
ag3
(g7
S'\x9e\xd8\x89\x9d\xd8\xe9T@'
p4847
tp4848
Rp4849
ag3
(g7
S'\xab\xaa\xaa\xaa\xaa\xaaU@'
p4850
tp4851
Rp4852
ag3
(g7
S'\xdb\xb6m\xdb\xb6mU@'
p4853
tp4854
Rp4855
ag3
(g7
S'%I\x92$IRV@'
p4856
tp4857
Rp4858
ag3
(g7
S'\xdaKh/\xa1\xfdU@'
p4859
tp4860
Rp4861
ag3
(g7
S'\xc7q\x1c\xc7q\x9cW@'
p4862
tp4863
Rp4864
ag3
(g7
S'C\x16\xb2\x90\x85,V@'
p4865
tp4866
Rp4867
ag3
(g7
S'O\xec\xc4N\xecdU@'
p4868
tp4869
Rp4870
ag3
(g7
S'\x00\x00\x00\x00\x00\xe0U@'
p4871
tp4872
Rp4873
ag3
(g7
S'\x18\x86a\x18\x86aV@'
p4874
tp4875
Rp4876
ag3
(g7
S'\xd1E\x17]t\xd1U@'
p4877
tp4878
Rp4879
ag3
(g7
S'\xe8y\x9e\xe7y\x9eV@'
p4880
tp4881
Rp4882
ag3
(g7
S'\x86a\x18\x86a\x18W@'
p4883
tp4884
Rp4885
ag3
(g7
S'\x13\xdaKh/aW@'
p4886
tp4887
Rp4888
ag3
(g7
S'\xab\xaa\xaa\xaa\xaa\xaaU@'
p4889
tp4890
Rp4891
ag3
(g7
S';\xb1\x13;\xb1\x13W@'
p4892
tp4893
Rp4894
ag3
(g7
S'\x00\x00\x00\x00\x00\xe0U@'
p4895
tp4896
Rp4897
ag3
(g7
S'\x86a\x18\x86a\x18W@'
p4898
tp4899
Rp4900
ag3
(g7
S'\\\xd9\xe7\x90\x9a\xe0V@'
p4901
tp4902
Rp4903
ag3
(g7
S'I\x92$I\x92$V@'
p4904
tp4905
Rp4906
ag3
(g7
S'_B{\t\xed%W@'
p4907
tp4908
Rp4909
ag3
(g7
S'\xb7m\xdb\xb6m\xdbV@'
p4910
tp4911
Rp4912
ag3
(g7
S'\x14;\xb1\x13;QW@'
p4913
tp4914
Rp4915
ag3
(g7
S'\xf69\xa4&\x18\xefU@'
p4916
tp4917
Rp4918
ag3
(g7
S'\xc8B\x16\xb2\x90\x85U@'
p4919
tp4920
Rp4921
ag3
(g7
S'\x82\xf1V\xf69\xa4V@'
p4922
tp4923
Rp4924
ag3
(g7
S"vb'vb'U@"
p4925
tp4926
Rp4927
ag3
(g7
S'\x00\x00\x00\x00\x00\xc0V@'
p4928
tp4929
Rp4930
ag3
(g7
S'\x8a\x9d\xd8\x89\x9d\x98V@'
p4931
tp4932
Rp4933
ag3
(g7
S'\xdb\xb6m\xdb\xb6mU@'
p4934
tp4935
Rp4936
ag3
(g7
S'K`\xd3~\xb2\x04V@'
p4937
tp4938
Rp4939
ag3
(g7
S'\xb6X\x19\xbe\x11\x05W@'
p4940
tp4941
Rp4942
ag3
(g7
S'\xab\xaa\xaa\xaa\xaa\xaaU@'
p4943
tp4944
Rp4945
ag3
(g7
S'%I\x92$IRV@'
p4946
tp4947
Rp4948
ag3
(g7
S'F\x17]t\xd1EV@'
p4949
tp4950
Rp4951
ag3
(g7
S'\x12\x05&\x9d\x9a\x07V@'
p4952
tp4953
Rp4954
ag3
(g7
S'\x8c.\xba\xe8\xa2\x0bV@'
p4955
tp4956
Rp4957
ag3
(g7
S'\xdb\xb6m\xdb\xb6mU@'
p4958
tp4959
Rp4960
ag3
(g7
S'\x91\x85,d!\x0bW@'
p4961
tp4962
Rp4963
ag3
(g7
S';\xb1\x13;\xb1\x13W@'
p4964
tp4965
Rp4966
ag3
(g7
S'j\x82\xf1V\xf69U@'
p4967
tp4968
Rp4969
ag3
(g7
S'\x0c\xc30\x0c\xc30U@'
p4970
tp4971
Rp4972
ag3
(g7
S'\xa9\t\xc6[\xd9gV@'
p4973
tp4974
Rp4975
ag3
(g7
S'\xdb\xb6m\xdb\xb6mU@'
p4976
tp4977
Rp4978
ag3
(g7
S'#,\xf74\xc22V@'
p4979
tp4980
Rp4981
ag3
(g7
S'B{\t\xed%tV@'
p4982
tp4983
Rp4984
ag3
(g7
S'\xab\xaa\xaa\xaa\xaa\xaaU@'
p4985
tp4986
Rp4987
ag3
(g7
S'\xfb\xd9be\xf8FV@'
p4988
tp4989
Rp4990
ag3
(g7
S"b'vb'\xd6V@"
p4991
tp4992
Rp4993
ag3
(g7
S'n\xdb\xb6m\xdb\xb6T@'
p4994
tp4995
Rp4996
ag3
(g7
S'\xbd\xe9Moz\xd3V@'
p4997
tp4998
Rp4999
ag3
(g7
S'n\xdb\xb6m\xdb\xb6T@'
p5000
tp5001
Rp5002
ag3
(g7
S'z\x9e\xe7y\x9e\xe7U@'
p5003
tp5004
Rp5005
ag3
(g7
S'\xab\xaa\xaa\xaa\xaa\xaaU@'
p5006
tp5007
Rp5008
ag3
(g7
S'\xd9\x89\x9d\xd8\x89\x1dV@'
p5009
tp5010
Rp5011
ag3
(g7
S'\xdb\xb6m\xdb\xb6mU@'
p5012
tp5013
Rp5014
ag3
(g7
S'F\x17]t\xd1EV@'
p5015
tp5016
Rp5017
ag3
(g7
S'\xfb\xd9be\xf8FV@'
p5018
tp5019
Rp5020
ag3
(g7
S'\xab\xaa\xaa\xaa\xaa\xaaU@'
p5021
tp5022
Rp5023
ag3
(g7
S'\xe8\x90\x9a`\xbc\x95W@'
p5024
tp5025
Rp5026
ag3
(g7
S'\x00\x00\x00\x00\x00\x80V@'
p5027
tp5028
Rp5029
ag3
(g7
S'I\x92$I\x92$V@'
p5030
tp5031
Rp5032
ag3
(g7
S'?[\xac\x0c\xdf\x88U@'
p5033
tp5034
Rp5035
ag3
(g7
S'\xd1E\x17]t\xd1U@'
p5036
tp5037
Rp5038
ag3
(g7
S'\xdb\xb6m\xdb\xb6mU@'
p5039
tp5040
Rp5041
ag3
(g7
S'V\x86oD\x81IU@'
p5042
tp5043
Rp5044
ag3
(g7
S'%I\x92$I\x92W@'
p5045
tp5046
Rp5047
ag3
(g7
S'%I\x92$IRV@'
p5048
tp5049
Rp5050
ag3
(g7
S'=\xcf\xf3<\xcf\xf3T@'
p5051
tp5052
Rp5053
ag3
(g7
S'_B{\t\xed%W@'
p5054
tp5055
Rp5056
ag3
(g7
S'\xdb\xb6m\xdb\xb6mU@'
p5057
tp5058
Rp5059
ag3
(g7
S'\x00\x00\x00\x00\x00@V@'
p5060
tp5061
Rp5062
ag3
(g7
S'\xb7m\xdb\xb6m\x8bV@'
p5063
tp5064
Rp5065
ag3
(g7
S'r\x1c\xc7q\x1c\x87U@'
p5066
tp5067
Rp5068
ag3
(g7
S'I\x92$I\x92$V@'
p5069
tp5070
Rp5071
ag3
(g7
S'\x8a\x9d\xd8\x89\x9d\x98V@'
p5072
tp5073
Rp5074
ag3
(g7
S'r\x1c\xc7q\x1c\x87U@'
p5075
tp5076
Rp5077
ag3
(g7
S'\xde\xca>\x87\xd4\x84T@'
p5078
tp5079
Rp5080
ag3
(g7
S'\x8a\x9d\xd8\x89\x9d\x98V@'
p5081
tp5082
Rp5083
ag3
(g7
S'\x00\x00\x00\x00\x00\x00V@'
p5084
tp5085
Rp5086
ag3
(g7
S'UUUUUUW@'
p5087
tp5088
Rp5089
ag3
(g7
S'\x8a\x9d\xd8\x89\x9d\x98V@'
p5090
tp5091
Rp5092
ag3
(g7
S'\xc5N\xec\xc4N\xacT@'
p5093
tp5094
Rp5095
ag3
(g7
S'\xdd\xd3\x08\xcb=\x8dU@'
p5096
tp5097
Rp5098
ag3
(g7
S'\x8e\xe38\x8e\xe38V@'
p5099
tp5100
Rp5101
ag3
(g7
S'\xdb\xb6m\xdb\xb6mU@'
p5102
tp5103
Rp5104
ag3
(g7
S'%I\x92$I\xc2T@'
p5105
tp5106
Rp5107
ag3
(g7
S'\x18\x86a\x18\x86aV@'
p5108
tp5109
Rp5110
ag3
(g7
S't\xd1E\x17]\xf4V@'
p5111
tp5112
Rp5113
ag3
(g7
S'\xf4\xf8.\x1cD\x8fU@'
p5114
tp5115
Rp5116
ag3
(g7
S'z\x9e\xe7y\x9e\xe7U@'
p5117
tp5118
Rp5119
ag3
(g7
S'\xab\xaa\xaa\xaa\xaa\xaaU@'
p5120
tp5121
Rp5122
ag3
(g7
S'%I\x92$I\x92W@'
p5123
tp5124
Rp5125
ag3
(g7
S'O\xec\xc4N\xecdU@'
p5126
tp5127
Rp5128
ag3
(g7
S'\xe8y\x9e\xe7y\x9eV@'
p5129
tp5130
Rp5131
ag3
(g7
S'\xab\xaa\xaa\xaa\xaa\xaaU@'
p5132
tp5133
Rp5134
ag3
(g7
S'\x8e\xe38\x8e\xe38V@'
p5135
tp5136
Rp5137
ag3
(g7
S'\xb7m\xdb\xb6m\xdbV@'
p5138
tp5139
Rp5140
ag3
(g7
S'r\x1c\xc7q\x1c\x87U@'
p5141
tp5142
Rp5143
ag3
(g7
S'\xf69\xa4&\x18\xefU@'
p5144
tp5145
Rp5146
ag3
(g7
S'\xf4<\xcf\xf3<\xcfW@'
p5147
tp5148
Rp5149
ag3
(g7
S'\xf7\x12\xdaKh\xafV@'
p5150
tp5151
Rp5152
ag3
(g7
S'\xf4<\xcf\xf3<\xcfW@'
p5153
tp5154
Rp5155
ag3
(g7
S'\x16\xb2\x90\x85,dV@'
p5156
tp5157
Rp5158
ag3
(g7
S'n\xdb\xb6m\xdb\xa6U@'
p5159
tp5160
Rp5161
ag3
(g7
S'r\xd7\xcf\x16+\xc3W@'
p5162
tp5163
Rp5164
ag3
(g7
S'z\x9e\xe7y\x9e\xe7U@'
p5165
tp5166
Rp5167
ag3
(g7
S'\x92$I\x92$\x19V@'
p5168
tp5169
Rp5170
ag3
(g7
S'\xcd\x83\xdc\xf5\xb3\xc5V@'
p5171
tp5172
Rp5173
ag3
(g7
S'\xab\xaa\xaa\xaa\xaa\xaaU@'
p5174
tp5175
Rp5176
ag3
(g7
S'_B{\t\xed%W@'
p5177
tp5178
Rp5179
ag3
(g7
S'j\x82\xf1V\xf69U@'
p5180
tp5181
Rp5182
ag3
(g7
S'\x16\xb2\x90\x85,dV@'
p5183
tp5184
Rp5185
ag3
(g7
S'\xe8y\x9e\xe7y\x9eV@'
p5186
tp5187
Rp5188
ag3
(g7
S'/\xba\xe8\xa2\x8b.W@'
p5189
tp5190
Rp5191
ag3
(g7
S"b'vb'\xd6V@"
p5192
tp5193
Rp5194
ag3
(g7
S'\xe8y\x9e\xe7y\x9eV@'
p5195
tp5196
Rp5197
ag3
(g7
S"b'vb'\xd6V@"
p5198
tp5199
Rp5200
ag3
(g7
S'\xa9\t\xc6[\xd9gV@'
p5201
tp5202
Rp5203
ag3
(g7
S't\xd1E\x17]\xf4V@'
p5204
tp5205
Rp5206
ag3
(g7
S'\x00\x00\x00\x00\x00\x00V@'
p5207
tp5208
Rp5209
ag3
(g7
S'\x86a\x18\x86a\x18W@'
p5210
tp5211
Rp5212
ag3
(g7
S';\xb1\x13;\xb1\x13W@'
p5213
tp5214
Rp5215
ag3
(g7
S'\xdb\xb6m\xdb\xb6\xfdV@'
p5216
tp5217
Rp5218
ag3
(g7
S't\xd1E\x17]\xf4V@'
p5219
tp5220
Rp5221
ag3
(g7
S'\x00\x00\x00\x00\x00@W@'
p5222
tp5223
Rp5224
ag3
(g7
S'\x82\xf1V\xf69\xa4V@'
p5225
tp5226
Rp5227
ag3
(g7
S'\x18\x86a\x18\x86aV@'
p5228
tp5229
Rp5230
ag3
(g7
S'\x18\x86a\x18\x86aV@'
p5231
tp5232
Rp5233
ag3
(g7
S'z\x9e\xe7y\x9e\xe7U@'
p5234
tp5235
Rp5236
ag3
(g7
S"b'vb'\xd6V@"
p5237
tp5238
Rp5239
ag3
(g7
S'\xb7m\xdb\xb6m\xdbV@'
p5240
tp5241
Rp5242
ag3
(g7
S'\x13\xdaKh/aW@'
p5243
tp5244
Rp5245
ag3
(g7
S'\xab\xaa\xaa\xaa\xaa\xeaV@'
p5246
tp5247
Rp5248
ag3
(g7
S'\x91\x85,d!\x0bW@'
p5249
tp5250
Rp5251
ag3
(g7
S'\x8c.\xba\xe8\xa2\x0bV@'
p5252
tp5253
Rp5254
ag3
(g7
S'\x18\x86a\x18\x86aV@'
p5255
tp5256
Rp5257
ag3
(g7
S'\xd9\x89\x9d\xd8\x89\x1dV@'
p5258
tp5259
Rp5260
ag3
(g7
S'O\xec\xc4N\xecdU@'
p5261
tp5262
Rp5263
ag3
(g7
S'\xf9.\x1cD\x8f\xefV@'
p5264
tp5265
Rp5266
ag3
(g7
S'\x89\x02\x93N\xcd\x83W@'
p5267
tp5268
Rp5269
ag3
(g7
S'\x00\x00\x00\x00\x00\x80V@'
p5270
tp5271
Rp5272
ag3
(g7
S'\xab\xaa\xaa\xaa\xaa\xaaU@'
p5273
tp5274
Rp5275
ag3
(g7
S'\xe4\xae\x9f-V\x86V@'
p5276
tp5277
Rp5278
ag3
(g7
S'O\xec\xc4N\xecdU@'
p5279
tp5280
Rp5281
ag3
(g7
S'\x92$I\x92$\x19V@'
p5282
tp5283
Rp5284
ag3
(g7
S'\xd0!5\xc1x+V@'
p5285
tp5286
Rp5287
ag3
(g7
S'I\x92$I\x92$V@'
p5288
tp5289
Rp5290
ag3
(g7
S'\xd9\x89\x9d\xd8\x89\x1dV@'
p5291
tp5292
Rp5293
ag3
(g7
S'\xf7\x12\xdaKh\xafV@'
p5294
tp5295
Rp5296
ag3
(g7
S'\xb7m\xdb\xb6m\x8bV@'
p5297
tp5298
Rp5299
ag3
(g7
S'n\xdb\xb6m\xdb\xa6U@'
p5300
tp5301
Rp5302
ag3
(g7
S'\x00\x00\x00\x00\x00@W@'
p5303
tp5304
Rp5305
ag3
(g7
S'z\x9e\xe7y\x9e\xe7U@'
p5306
tp5307
Rp5308
ag3
(g7
S"'vb'v\xa2U@"
p5309
tp5310
Rp5311
ag3
(g7
S'I\x92$I\x92\xc4V@'
p5312
tp5313
Rp5314
ag3
(g7
S'\xa8\x11\x96{\x1a\xa1V@'
p5315
tp5316
Rp5317
ag3
(g7
S'UUUUUUW@'
p5318
tp5319
Rp5320
ag3
(g7
S'\x0c\xc30\x0c\xc30U@'
p5321
tp5322
Rp5323
ag3
(g7
S'N\xfb\xc9\x12\xd8\xb4V@'
p5324
tp5325
Rp5326
ag3
(g7
S'\xa8\x11\x96{\x1a\xa1V@'
p5327
tp5328
Rp5329
ag3
(g7
S'\xdb\xb6m\xdb\xb6mU@'
p5330
tp5331
Rp5332
ag3
(g7
S'\x8c.\xba\xe8\xa2\x0bV@'
p5333
tp5334
Rp5335
ag3
(g7
S'\x8c.\xba\xe8\xa2\x0bV@'
p5336
tp5337
Rp5338
ag3
(g7
S'\xf7\x12\xdaKh\xafV@'
p5339
tp5340
Rp5341
ag3
(g7
S'\xe4\xae\x9f-V\x86V@'
p5342
tp5343
Rp5344
ag3
(g7
S'Dj\x82\xf1VvU@'
p5345
tp5346
Rp5347
ag3
(g7
S'\xd9\x89\x9d\xd8\x89\x1dV@'
p5348
tp5349
Rp5350
ag3
(g7
S'UUUUUUW@'
p5351
tp5352
Rp5353
ag3
(g7
S"'vb'v\xa2U@"
p5354
tp5355
Rp5356
ag3
(g7
S'\xa9\t\xc6[\xd9gV@'
p5357
tp5358
Rp5359
ag3
(g7
S'\x9e\xe7y\x9e\xe7yT@'
p5360
tp5361
Rp5362
ag3
(g7
S'\xfb\xd9be\xf8FV@'
p5363
tp5364
Rp5365
ag3
(g7
S'oz\xd3\x9b\xde\xf4U@'
p5366
tp5367
Rp5368
ag3
(g7
S'\x18\x86a\x18\x86aV@'
p5369
tp5370
Rp5371
ag3
(g7
S'\x00\x00\x00\x00\x00\xe0U@'
p5372
tp5373
Rp5374
ag3
(g7
S'\x0c\xc30\x0c\xc30U@'
p5375
tp5376
Rp5377
ag3
(g7
S'\x18\x86a\x18\x86aV@'
p5378
tp5379
Rp5380
ag3
(g7
S'\xb7m\xdb\xb6m\xdbV@'
p5381
tp5382
Rp5383
ag3
(g7
S'B{\t\xed%tV@'
p5384
tp5385
Rp5386
asS'valid_loss'
p5387
(lp5388
g3
(g7
S'UUU\x85\x01\x9b\x01@'
p5389
tp5390
Rp5391
ag3
(g7
S'\xab\xaa\xaaB\xfe\xa0\xec?'
p5392
tp5393
Rp5394
ag3
(g7
S'UUU\xfd5\xa5\xe8?'
p5395
tp5396
Rp5397
ag3
(g7
S'\x00\x00\x00\xd8\ri\xe7?'
p5398
tp5399
Rp5400
ag3
(g7
S'\xab\xaa\xaa\xa2y \xe8?'
p5401
tp5402
Rp5403
ag3
(g7
S'\xab\xaa\xaa2\xed\x94\xe8?'
p5404
tp5405
Rp5406
ag3
(g7
S'\x00\x00\x00P\xd6.\xea?'
p5407
tp5408
Rp5409
ag3
(g7
S'\xab\xaa\xaa\xea\xf0\x04\xec?'
p5410
tp5411
Rp5412
ag3
(g7
S'UUU\xbd\xfd+\xed?'
p5413
tp5414
Rp5415
as.